

Microchip MPLAB XC8 Assembler V2.40 build 20220703182018 
                                                                                               Fri Jan 06 14:43:01 2023

Microchip MPLAB XC8 C Compiler v2.40 (Free license) build 20220703182018 Og1 
     1                           	processor	16F15356
     2                           	pagewidth 120
     3                           	opt	flic
     4                           	psect	stringtext1,global,class=STRCODE,delta=2,noexec
     5                           	psect	stringtext2,global,class=STRCODE,delta=2,noexec
     6                           	psect	stringtext3,global,class=STRCODE,delta=2,noexec
     7                           	psect	stringtext4,global,class=STRCODE,delta=2,noexec
     8                           	psect	stringtext5,global,class=STRCODE,delta=2,noexec
     9                           	psect	stringtext6,global,class=STRCODE,delta=2,noexec
    10                           	psect	stringtext7,global,class=STRCODE,delta=2,noexec
    11                           	psect	stringtext8,global,class=STRCODE,delta=2,noexec
    12                           	psect	stringtext9,global,class=STRCODE,delta=2,noexec
    13                           	psect	stringtext10,global,class=STRCODE,delta=2,noexec
    14                           	psect	stringtext11,global,class=STRCODE,delta=2,noexec
    15                           	psect	stringtext12,global,class=STRCODE,delta=2,noexec
    16                           	psect	stringtext13,global,class=STRCODE,delta=2,noexec
    17                           	psect	stringtext14,global,class=STRCODE,delta=2,noexec
    18                           	psect	stringtext15,global,class=STRCODE,delta=2,noexec
    19                           	psect	stringtext16,global,class=STRCODE,delta=2,noexec
    20                           	psect	stringtext17,global,class=STRCODE,delta=2,noexec
    21                           	psect	stringtext18,global,class=STRCODE,delta=2,noexec
    22                           	psect	stringtext19,global,class=STRCODE,delta=2,noexec
    23                           	psect	stringtext20,global,class=STRCODE,delta=2,noexec
    24                           	psect	stringtext21,global,class=STRCODE,delta=2,noexec
    25                           	psect	cinit,global,class=CODE,merge=1,delta=2
    26                           	psect	bssCOMMON,global,class=COMMON,space=1,delta=1,noexec
    27                           	psect	bssBANK0,global,class=BANK0,space=1,delta=1,noexec
    28                           	psect	bssBANK1,global,class=BANK1,space=1,delta=1,noexec
    29                           	psect	bssBANK2,global,class=BANK2,space=1,delta=1,noexec
    30                           	psect	clrtext,global,class=CODE,delta=2
    31                           	psect	cstackCOMMON,global,class=COMMON,space=1,delta=1,noexec
    32                           	psect	cstackBANK0,global,class=BANK0,space=1,delta=1,noexec
    33                           	psect	maintext,global,class=CODE,merge=1,split=1,delta=2
    34                           	psect	text1,local,class=CODE,merge=1,delta=2,group=2
    35                           	psect	text2,local,class=CODE,merge=1,delta=2
    36                           	psect	text3,local,class=CODE,merge=1,delta=2
    37                           	psect	text4,local,class=CODE,merge=1,delta=2
    38                           	psect	text5,local,class=CODE,merge=1,delta=2
    39                           	psect	text6,local,class=CODE,merge=1,delta=2
    40                           	psect	text7,local,class=CODE,merge=1,delta=2
    41                           	psect	text8,local,class=CODE,merge=1,delta=2
    42                           	psect	text9,local,class=CODE,merge=1,delta=2
    43                           	psect	text10,local,class=CODE,merge=1,delta=2
    44                           	psect	text11,local,class=CODE,merge=1,delta=2
    45                           	psect	text12,local,class=CODE,merge=1,delta=2
    46                           	psect	text13,local,class=CODE,merge=1,delta=2
    47                           	psect	text14,local,class=CODE,merge=1,delta=2
    48                           	psect	intentry,global,class=CODE,delta=2
    49                           	psect	text16,local,class=CODE,merge=1,delta=2
    50                           	psect	text17,local,class=CODE,merge=1,delta=2
    51                           	psect	idloc,global,abs,ovrld,class=IDLOC,space=5,delta=2,noexec
    52                           	psect	config,global,abs,ovrld,class=CONFIG,space=4,delta=2,noexec
    53                           	dabs	1,0x7E,2
    54     0000                     
    55                           ; Generated 19/12/2022 GMT
    56                           ; 
    57                           ; Copyright © 2022, Microchip Technology Inc. and its subsidiaries ("Microchip")
    58                           ; All rights reserved.
    59                           ; 
    60                           ; This software is developed by Microchip Technology Inc. and its subsidiaries ("Microch
      +                          ip").
    61                           ; 
    62                           ; Redistribution and use in source and binary forms, with or without modification, are
    63                           ; permitted provided that the following conditions are met:
    64                           ; 
    65                           ;     1. Redistributions of source code must retain the above copyright notice, this lis
      +                          t of
    66                           ;        conditions and the following disclaimer.
    67                           ; 
    68                           ;     2. Redistributions in binary form must reproduce the above copyright notice, this 
      +                          list
    69                           ;        of conditions and the following disclaimer in the documentation and/or other
    70                           ;        materials provided with the distribution. Publication is not required when
    71                           ;        this file is used in an embedded application.
    72                           ; 
    73                           ;     3. Microchip's name may not be used to endorse or promote products derived from th
      +                          is
    74                           ;        software without specific prior written permission.
    75                           ; 
    76                           ; THIS SOFTWARE IS PROVIDED BY MICROCHIP "AS IS" AND ANY EXPRESS OR IMPLIED WARRANTIES,
    77                           ; INCLUDING, BUT NOT LIMITED TO, THE IMPLIED WARRANTIES OF MERCHANTABILITY AND FITNESS F
      +                          OR
    78                           ; PURPOSE ARE DISCLAIMED.  IN NO EVENT SHALL MICROCHIP BE LIABLE FOR ANY DIRECT, INDIREC
      +                          T,
    79                           ; INCIDENTAL, SPECIAL, EXEMPLARY, OR CONSEQUENTIAL DAMAGES (INCLUDING BUT NOT LIMITED TO
    80                           ; PROCUREMENT OF SUBSTITUTE GOODS OR SERVICES; LOSS OF USE, DATA OR PROFITS; OR BUSINESS
    81                           ; INTERRUPTION) HOWSOEVER CAUSED AND ON ANY THEORY OF LIABILITY, WHETHER IN CONTRACT, ST
      +                          RICT
    82                           ; LIABILITY, OR TORT (INCLUDING NEGLIGENCE OR OTHERWISE) ARISING IN ANY WAY OUT OF THE U
      +                          SE OF
    83                           ; THIS SOFTWARE, EVEN IF ADVISED OF THE POSSIBILITY OF SUCH DAMAGE.
    84                           ; 
    85                           ; 
    86                           ; Code-generator required, PIC16F15356 Definitions
    87                           ; 
    88                           ; SFR Addresses
    89     0000                     	;# 
    90     0001                     	;# 
    91     0002                     	;# 
    92     0003                     	;# 
    93     0004                     	;# 
    94     0005                     	;# 
    95     0006                     	;# 
    96     0007                     	;# 
    97     0008                     	;# 
    98     0009                     	;# 
    99     000A                     	;# 
   100     000B                     	;# 
   101     000C                     	;# 
   102     000D                     	;# 
   103     000E                     	;# 
   104     0010                     	;# 
   105     0012                     	;# 
   106     0013                     	;# 
   107     0014                     	;# 
   108     0016                     	;# 
   109     0018                     	;# 
   110     0019                     	;# 
   111     001A                     	;# 
   112     009B                     	;# 
   113     009B                     	;# 
   114     009C                     	;# 
   115     009D                     	;# 
   116     009E                     	;# 
   117     009F                     	;# 
   118     0119                     	;# 
   119     0119                     	;# 
   120     0119                     	;# 
   121     011A                     	;# 
   122     011A                     	;# 
   123     011A                     	;# 
   124     011B                     	;# 
   125     011B                     	;# 
   126     011B                     	;# 
   127     011B                     	;# 
   128     011B                     	;# 
   129     011C                     	;# 
   130     011C                     	;# 
   131     011C                     	;# 
   132     011D                     	;# 
   133     011D                     	;# 
   134     011D                     	;# 
   135     011E                     	;# 
   136     011E                     	;# 
   137     011E                     	;# 
   138     011F                     	;# 
   139     011F                     	;# 
   140     011F                     	;# 
   141     011F                     	;# 
   142     011F                     	;# 
   143     018C                     	;# 
   144     018D                     	;# 
   145     018E                     	;# 
   146     018F                     	;# 
   147     0190                     	;# 
   148     0191                     	;# 
   149     0192                     	;# 
   150     0196                     	;# 
   151     0197                     	;# 
   152     0198                     	;# 
   153     0199                     	;# 
   154     019A                     	;# 
   155     019B                     	;# 
   156     019C                     	;# 
   157     020C                     	;# 
   158     020C                     	;# 
   159     020D                     	;# 
   160     020E                     	;# 
   161     020F                     	;# 
   162     020F                     	;# 
   163     0210                     	;# 
   164     0210                     	;# 
   165     0211                     	;# 
   166     0211                     	;# 
   167     028C                     	;# 
   168     028C                     	;# 
   169     028D                     	;# 
   170     028D                     	;# 
   171     028E                     	;# 
   172     028F                     	;# 
   173     0290                     	;# 
   174     0291                     	;# 
   175     030C                     	;# 
   176     030C                     	;# 
   177     030D                     	;# 
   178     030E                     	;# 
   179     030F                     	;# 
   180     0310                     	;# 
   181     0310                     	;# 
   182     0311                     	;# 
   183     0312                     	;# 
   184     0313                     	;# 
   185     0314                     	;# 
   186     0314                     	;# 
   187     0315                     	;# 
   188     0316                     	;# 
   189     0318                     	;# 
   190     0318                     	;# 
   191     0319                     	;# 
   192     031A                     	;# 
   193     031C                     	;# 
   194     031C                     	;# 
   195     031D                     	;# 
   196     031E                     	;# 
   197     038C                     	;# 
   198     038C                     	;# 
   199     038D                     	;# 
   200     038E                     	;# 
   201     058C                     	;# 
   202     058C                     	;# 
   203     058D                     	;# 
   204     058E                     	;# 
   205     058F                     	;# 
   206     058F                     	;# 
   207     0590                     	;# 
   208     0591                     	;# 
   209     0592                     	;# 
   210     0593                     	;# 
   211     059C                     	;# 
   212     059C                     	;# 
   213     059D                     	;# 
   214     059D                     	;# 
   215     059E                     	;# 
   216     059F                     	;# 
   217     060C                     	;# 
   218     060D                     	;# 
   219     060E                     	;# 
   220     060F                     	;# 
   221     0610                     	;# 
   222     0611                     	;# 
   223     0612                     	;# 
   224     0613                     	;# 
   225     0614                     	;# 
   226     070C                     	;# 
   227     070D                     	;# 
   228     070E                     	;# 
   229     070F                     	;# 
   230     0710                     	;# 
   231     0711                     	;# 
   232     0712                     	;# 
   233     0713                     	;# 
   234     0716                     	;# 
   235     0717                     	;# 
   236     0718                     	;# 
   237     0719                     	;# 
   238     071A                     	;# 
   239     071B                     	;# 
   240     071C                     	;# 
   241     071D                     	;# 
   242     0796                     	;# 
   243     0797                     	;# 
   244     0798                     	;# 
   245     0799                     	;# 
   246     079A                     	;# 
   247     079B                     	;# 
   248     080C                     	;# 
   249     080D                     	;# 
   250     080E                     	;# 
   251     080F                     	;# 
   252     0810                     	;# 
   253     0811                     	;# 
   254     0812                     	;# 
   255     0813                     	;# 
   256     0814                     	;# 
   257     081A                     	;# 
   258     081A                     	;# 
   259     081B                     	;# 
   260     081C                     	;# 
   261     081C                     	;# 
   262     081D                     	;# 
   263     081E                     	;# 
   264     081F                     	;# 
   265     088C                     	;# 
   266     088D                     	;# 
   267     088E                     	;# 
   268     088F                     	;# 
   269     0890                     	;# 
   270     0891                     	;# 
   271     0892                     	;# 
   272     0893                     	;# 
   273     0895                     	;# 
   274     0896                     	;# 
   275     090C                     	;# 
   276     090E                     	;# 
   277     090F                     	;# 
   278     091F                     	;# 
   279     098F                     	;# 
   280     098F                     	;# 
   281     0990                     	;# 
   282     0991                     	;# 
   283     0992                     	;# 
   284     0993                     	;# 
   285     0994                     	;# 
   286     0995                     	;# 
   287     0996                     	;# 
   288     0997                     	;# 
   289     0A19                     	;# 
   290     0A19                     	;# 
   291     0A1A                     	;# 
   292     0A1A                     	;# 
   293     0A1B                     	;# 
   294     0A1B                     	;# 
   295     0A1B                     	;# 
   296     0A1C                     	;# 
   297     0A1C                     	;# 
   298     0A1D                     	;# 
   299     0A1D                     	;# 
   300     0A1E                     	;# 
   301     0A1E                     	;# 
   302     0A1F                     	;# 
   303     0A1F                     	;# 
   304     0A1F                     	;# 
   305     1E0F                     	;# 
   306     1E10                     	;# 
   307     1E11                     	;# 
   308     1E12                     	;# 
   309     1E13                     	;# 
   310     1E14                     	;# 
   311     1E15                     	;# 
   312     1E16                     	;# 
   313     1E17                     	;# 
   314     1E18                     	;# 
   315     1E19                     	;# 
   316     1E1A                     	;# 
   317     1E1B                     	;# 
   318     1E1C                     	;# 
   319     1E1D                     	;# 
   320     1E1E                     	;# 
   321     1E1F                     	;# 
   322     1E20                     	;# 
   323     1E21                     	;# 
   324     1E22                     	;# 
   325     1E23                     	;# 
   326     1E24                     	;# 
   327     1E25                     	;# 
   328     1E26                     	;# 
   329     1E27                     	;# 
   330     1E28                     	;# 
   331     1E29                     	;# 
   332     1E2A                     	;# 
   333     1E2B                     	;# 
   334     1E2C                     	;# 
   335     1E2D                     	;# 
   336     1E2E                     	;# 
   337     1E2F                     	;# 
   338     1E30                     	;# 
   339     1E31                     	;# 
   340     1E32                     	;# 
   341     1E33                     	;# 
   342     1E34                     	;# 
   343     1E35                     	;# 
   344     1E36                     	;# 
   345     1E37                     	;# 
   346     1E8F                     	;# 
   347     1E90                     	;# 
   348     1E91                     	;# 
   349     1E92                     	;# 
   350     1E93                     	;# 
   351     1E9C                     	;# 
   352     1EA1                     	;# 
   353     1EA2                     	;# 
   354     1EB1                     	;# 
   355     1EBB                     	;# 
   356     1EBC                     	;# 
   357     1EBD                     	;# 
   358     1EBE                     	;# 
   359     1EC3                     	;# 
   360     1EC5                     	;# 
   361     1EC6                     	;# 
   362     1EC7                     	;# 
   363     1EC8                     	;# 
   364     1EC9                     	;# 
   365     1ECA                     	;# 
   366     1ECB                     	;# 
   367     1ECC                     	;# 
   368     1ECD                     	;# 
   369     1ECE                     	;# 
   370     1F10                     	;# 
   371     1F11                     	;# 
   372     1F12                     	;# 
   373     1F13                     	;# 
   374     1F14                     	;# 
   375     1F15                     	;# 
   376     1F16                     	;# 
   377     1F17                     	;# 
   378     1F18                     	;# 
   379     1F19                     	;# 
   380     1F1A                     	;# 
   381     1F1B                     	;# 
   382     1F1C                     	;# 
   383     1F1D                     	;# 
   384     1F1E                     	;# 
   385     1F1F                     	;# 
   386     1F20                     	;# 
   387     1F21                     	;# 
   388     1F22                     	;# 
   389     1F23                     	;# 
   390     1F24                     	;# 
   391     1F25                     	;# 
   392     1F26                     	;# 
   393     1F27                     	;# 
   394     1F38                     	;# 
   395     1F39                     	;# 
   396     1F3A                     	;# 
   397     1F3B                     	;# 
   398     1F3C                     	;# 
   399     1F3D                     	;# 
   400     1F3E                     	;# 
   401     1F3F                     	;# 
   402     1F43                     	;# 
   403     1F44                     	;# 
   404     1F45                     	;# 
   405     1F46                     	;# 
   406     1F47                     	;# 
   407     1F48                     	;# 
   408     1F49                     	;# 
   409     1F4A                     	;# 
   410     1F4E                     	;# 
   411     1F4F                     	;# 
   412     1F50                     	;# 
   413     1F51                     	;# 
   414     1F52                     	;# 
   415     1F53                     	;# 
   416     1F54                     	;# 
   417     1F55                     	;# 
   418     1F65                     	;# 
   419     1F68                     	;# 
   420     1F69                     	;# 
   421     1F6A                     	;# 
   422     1F6B                     	;# 
   423     1FE4                     	;# 
   424     1FE5                     	;# 
   425     1FE6                     	;# 
   426     1FE7                     	;# 
   427     1FE8                     	;# 
   428     1FE8                     	;# 
   429     1FE9                     	;# 
   430     1FEA                     	;# 
   431     1FEB                     	;# 
   432     1FED                     	;# 
   433     1FEE                     	;# 
   434     1FEF                     	;# 
   435     0000                     	;# 
   436     0001                     	;# 
   437     0002                     	;# 
   438     0003                     	;# 
   439     0004                     	;# 
   440     0005                     	;# 
   441     0006                     	;# 
   442     0007                     	;# 
   443     0008                     	;# 
   444     0009                     	;# 
   445     000A                     	;# 
   446     000B                     	;# 
   447     000C                     	;# 
   448     000D                     	;# 
   449     000E                     	;# 
   450     0010                     	;# 
   451     0012                     	;# 
   452     0013                     	;# 
   453     0014                     	;# 
   454     0016                     	;# 
   455     0018                     	;# 
   456     0019                     	;# 
   457     001A                     	;# 
   458     009B                     	;# 
   459     009B                     	;# 
   460     009C                     	;# 
   461     009D                     	;# 
   462     009E                     	;# 
   463     009F                     	;# 
   464     0119                     	;# 
   465     0119                     	;# 
   466     0119                     	;# 
   467     011A                     	;# 
   468     011A                     	;# 
   469     011A                     	;# 
   470     011B                     	;# 
   471     011B                     	;# 
   472     011B                     	;# 
   473     011B                     	;# 
   474     011B                     	;# 
   475     011C                     	;# 
   476     011C                     	;# 
   477     011C                     	;# 
   478     011D                     	;# 
   479     011D                     	;# 
   480     011D                     	;# 
   481     011E                     	;# 
   482     011E                     	;# 
   483     011E                     	;# 
   484     011F                     	;# 
   485     011F                     	;# 
   486     011F                     	;# 
   487     011F                     	;# 
   488     011F                     	;# 
   489     018C                     	;# 
   490     018D                     	;# 
   491     018E                     	;# 
   492     018F                     	;# 
   493     0190                     	;# 
   494     0191                     	;# 
   495     0192                     	;# 
   496     0196                     	;# 
   497     0197                     	;# 
   498     0198                     	;# 
   499     0199                     	;# 
   500     019A                     	;# 
   501     019B                     	;# 
   502     019C                     	;# 
   503     020C                     	;# 
   504     020C                     	;# 
   505     020D                     	;# 
   506     020E                     	;# 
   507     020F                     	;# 
   508     020F                     	;# 
   509     0210                     	;# 
   510     0210                     	;# 
   511     0211                     	;# 
   512     0211                     	;# 
   513     028C                     	;# 
   514     028C                     	;# 
   515     028D                     	;# 
   516     028D                     	;# 
   517     028E                     	;# 
   518     028F                     	;# 
   519     0290                     	;# 
   520     0291                     	;# 
   521     030C                     	;# 
   522     030C                     	;# 
   523     030D                     	;# 
   524     030E                     	;# 
   525     030F                     	;# 
   526     0310                     	;# 
   527     0310                     	;# 
   528     0311                     	;# 
   529     0312                     	;# 
   530     0313                     	;# 
   531     0314                     	;# 
   532     0314                     	;# 
   533     0315                     	;# 
   534     0316                     	;# 
   535     0318                     	;# 
   536     0318                     	;# 
   537     0319                     	;# 
   538     031A                     	;# 
   539     031C                     	;# 
   540     031C                     	;# 
   541     031D                     	;# 
   542     031E                     	;# 
   543     038C                     	;# 
   544     038C                     	;# 
   545     038D                     	;# 
   546     038E                     	;# 
   547     058C                     	;# 
   548     058C                     	;# 
   549     058D                     	;# 
   550     058E                     	;# 
   551     058F                     	;# 
   552     058F                     	;# 
   553     0590                     	;# 
   554     0591                     	;# 
   555     0592                     	;# 
   556     0593                     	;# 
   557     059C                     	;# 
   558     059C                     	;# 
   559     059D                     	;# 
   560     059D                     	;# 
   561     059E                     	;# 
   562     059F                     	;# 
   563     060C                     	;# 
   564     060D                     	;# 
   565     060E                     	;# 
   566     060F                     	;# 
   567     0610                     	;# 
   568     0611                     	;# 
   569     0612                     	;# 
   570     0613                     	;# 
   571     0614                     	;# 
   572     070C                     	;# 
   573     070D                     	;# 
   574     070E                     	;# 
   575     070F                     	;# 
   576     0710                     	;# 
   577     0711                     	;# 
   578     0712                     	;# 
   579     0713                     	;# 
   580     0716                     	;# 
   581     0717                     	;# 
   582     0718                     	;# 
   583     0719                     	;# 
   584     071A                     	;# 
   585     071B                     	;# 
   586     071C                     	;# 
   587     071D                     	;# 
   588     0796                     	;# 
   589     0797                     	;# 
   590     0798                     	;# 
   591     0799                     	;# 
   592     079A                     	;# 
   593     079B                     	;# 
   594     080C                     	;# 
   595     080D                     	;# 
   596     080E                     	;# 
   597     080F                     	;# 
   598     0810                     	;# 
   599     0811                     	;# 
   600     0812                     	;# 
   601     0813                     	;# 
   602     0814                     	;# 
   603     081A                     	;# 
   604     081A                     	;# 
   605     081B                     	;# 
   606     081C                     	;# 
   607     081C                     	;# 
   608     081D                     	;# 
   609     081E                     	;# 
   610     081F                     	;# 
   611     088C                     	;# 
   612     088D                     	;# 
   613     088E                     	;# 
   614     088F                     	;# 
   615     0890                     	;# 
   616     0891                     	;# 
   617     0892                     	;# 
   618     0893                     	;# 
   619     0895                     	;# 
   620     0896                     	;# 
   621     090C                     	;# 
   622     090E                     	;# 
   623     090F                     	;# 
   624     091F                     	;# 
   625     098F                     	;# 
   626     098F                     	;# 
   627     0990                     	;# 
   628     0991                     	;# 
   629     0992                     	;# 
   630     0993                     	;# 
   631     0994                     	;# 
   632     0995                     	;# 
   633     0996                     	;# 
   634     0997                     	;# 
   635     0A19                     	;# 
   636     0A19                     	;# 
   637     0A1A                     	;# 
   638     0A1A                     	;# 
   639     0A1B                     	;# 
   640     0A1B                     	;# 
   641     0A1B                     	;# 
   642     0A1C                     	;# 
   643     0A1C                     	;# 
   644     0A1D                     	;# 
   645     0A1D                     	;# 
   646     0A1E                     	;# 
   647     0A1E                     	;# 
   648     0A1F                     	;# 
   649     0A1F                     	;# 
   650     0A1F                     	;# 
   651     1E0F                     	;# 
   652     1E10                     	;# 
   653     1E11                     	;# 
   654     1E12                     	;# 
   655     1E13                     	;# 
   656     1E14                     	;# 
   657     1E15                     	;# 
   658     1E16                     	;# 
   659     1E17                     	;# 
   660     1E18                     	;# 
   661     1E19                     	;# 
   662     1E1A                     	;# 
   663     1E1B                     	;# 
   664     1E1C                     	;# 
   665     1E1D                     	;# 
   666     1E1E                     	;# 
   667     1E1F                     	;# 
   668     1E20                     	;# 
   669     1E21                     	;# 
   670     1E22                     	;# 
   671     1E23                     	;# 
   672     1E24                     	;# 
   673     1E25                     	;# 
   674     1E26                     	;# 
   675     1E27                     	;# 
   676     1E28                     	;# 
   677     1E29                     	;# 
   678     1E2A                     	;# 
   679     1E2B                     	;# 
   680     1E2C                     	;# 
   681     1E2D                     	;# 
   682     1E2E                     	;# 
   683     1E2F                     	;# 
   684     1E30                     	;# 
   685     1E31                     	;# 
   686     1E32                     	;# 
   687     1E33                     	;# 
   688     1E34                     	;# 
   689     1E35                     	;# 
   690     1E36                     	;# 
   691     1E37                     	;# 
   692     1E8F                     	;# 
   693     1E90                     	;# 
   694     1E91                     	;# 
   695     1E92                     	;# 
   696     1E93                     	;# 
   697     1E9C                     	;# 
   698     1EA1                     	;# 
   699     1EA2                     	;# 
   700     1EB1                     	;# 
   701     1EBB                     	;# 
   702     1EBC                     	;# 
   703     1EBD                     	;# 
   704     1EBE                     	;# 
   705     1EC3                     	;# 
   706     1EC5                     	;# 
   707     1EC6                     	;# 
   708     1EC7                     	;# 
   709     1EC8                     	;# 
   710     1EC9                     	;# 
   711     1ECA                     	;# 
   712     1ECB                     	;# 
   713     1ECC                     	;# 
   714     1ECD                     	;# 
   715     1ECE                     	;# 
   716     1F10                     	;# 
   717     1F11                     	;# 
   718     1F12                     	;# 
   719     1F13                     	;# 
   720     1F14                     	;# 
   721     1F15                     	;# 
   722     1F16                     	;# 
   723     1F17                     	;# 
   724     1F18                     	;# 
   725     1F19                     	;# 
   726     1F1A                     	;# 
   727     1F1B                     	;# 
   728     1F1C                     	;# 
   729     1F1D                     	;# 
   730     1F1E                     	;# 
   731     1F1F                     	;# 
   732     1F20                     	;# 
   733     1F21                     	;# 
   734     1F22                     	;# 
   735     1F23                     	;# 
   736     1F24                     	;# 
   737     1F25                     	;# 
   738     1F26                     	;# 
   739     1F27                     	;# 
   740     1F38                     	;# 
   741     1F39                     	;# 
   742     1F3A                     	;# 
   743     1F3B                     	;# 
   744     1F3C                     	;# 
   745     1F3D                     	;# 
   746     1F3E                     	;# 
   747     1F3F                     	;# 
   748     1F43                     	;# 
   749     1F44                     	;# 
   750     1F45                     	;# 
   751     1F46                     	;# 
   752     1F47                     	;# 
   753     1F48                     	;# 
   754     1F49                     	;# 
   755     1F4A                     	;# 
   756     1F4E                     	;# 
   757     1F4F                     	;# 
   758     1F50                     	;# 
   759     1F51                     	;# 
   760     1F52                     	;# 
   761     1F53                     	;# 
   762     1F54                     	;# 
   763     1F55                     	;# 
   764     1F65                     	;# 
   765     1F68                     	;# 
   766     1F69                     	;# 
   767     1F6A                     	;# 
   768     1F6B                     	;# 
   769     1FE4                     	;# 
   770     1FE5                     	;# 
   771     1FE6                     	;# 
   772     1FE7                     	;# 
   773     1FE8                     	;# 
   774     1FE8                     	;# 
   775     1FE9                     	;# 
   776     1FEA                     	;# 
   777     1FEB                     	;# 
   778     1FED                     	;# 
   779     1FEE                     	;# 
   780     1FEF                     	;# 
   781     0000                     	;# 
   782     0001                     	;# 
   783     0002                     	;# 
   784     0003                     	;# 
   785     0004                     	;# 
   786     0005                     	;# 
   787     0006                     	;# 
   788     0007                     	;# 
   789     0008                     	;# 
   790     0009                     	;# 
   791     000A                     	;# 
   792     000B                     	;# 
   793     000C                     	;# 
   794     000D                     	;# 
   795     000E                     	;# 
   796     0010                     	;# 
   797     0012                     	;# 
   798     0013                     	;# 
   799     0014                     	;# 
   800     0016                     	;# 
   801     0018                     	;# 
   802     0019                     	;# 
   803     001A                     	;# 
   804     009B                     	;# 
   805     009B                     	;# 
   806     009C                     	;# 
   807     009D                     	;# 
   808     009E                     	;# 
   809     009F                     	;# 
   810     0119                     	;# 
   811     0119                     	;# 
   812     0119                     	;# 
   813     011A                     	;# 
   814     011A                     	;# 
   815     011A                     	;# 
   816     011B                     	;# 
   817     011B                     	;# 
   818     011B                     	;# 
   819     011B                     	;# 
   820     011B                     	;# 
   821     011C                     	;# 
   822     011C                     	;# 
   823     011C                     	;# 
   824     011D                     	;# 
   825     011D                     	;# 
   826     011D                     	;# 
   827     011E                     	;# 
   828     011E                     	;# 
   829     011E                     	;# 
   830     011F                     	;# 
   831     011F                     	;# 
   832     011F                     	;# 
   833     011F                     	;# 
   834     011F                     	;# 
   835     018C                     	;# 
   836     018D                     	;# 
   837     018E                     	;# 
   838     018F                     	;# 
   839     0190                     	;# 
   840     0191                     	;# 
   841     0192                     	;# 
   842     0196                     	;# 
   843     0197                     	;# 
   844     0198                     	;# 
   845     0199                     	;# 
   846     019A                     	;# 
   847     019B                     	;# 
   848     019C                     	;# 
   849     020C                     	;# 
   850     020C                     	;# 
   851     020D                     	;# 
   852     020E                     	;# 
   853     020F                     	;# 
   854     020F                     	;# 
   855     0210                     	;# 
   856     0210                     	;# 
   857     0211                     	;# 
   858     0211                     	;# 
   859     028C                     	;# 
   860     028C                     	;# 
   861     028D                     	;# 
   862     028D                     	;# 
   863     028E                     	;# 
   864     028F                     	;# 
   865     0290                     	;# 
   866     0291                     	;# 
   867     030C                     	;# 
   868     030C                     	;# 
   869     030D                     	;# 
   870     030E                     	;# 
   871     030F                     	;# 
   872     0310                     	;# 
   873     0310                     	;# 
   874     0311                     	;# 
   875     0312                     	;# 
   876     0313                     	;# 
   877     0314                     	;# 
   878     0314                     	;# 
   879     0315                     	;# 
   880     0316                     	;# 
   881     0318                     	;# 
   882     0318                     	;# 
   883     0319                     	;# 
   884     031A                     	;# 
   885     031C                     	;# 
   886     031C                     	;# 
   887     031D                     	;# 
   888     031E                     	;# 
   889     038C                     	;# 
   890     038C                     	;# 
   891     038D                     	;# 
   892     038E                     	;# 
   893     058C                     	;# 
   894     058C                     	;# 
   895     058D                     	;# 
   896     058E                     	;# 
   897     058F                     	;# 
   898     058F                     	;# 
   899     0590                     	;# 
   900     0591                     	;# 
   901     0592                     	;# 
   902     0593                     	;# 
   903     059C                     	;# 
   904     059C                     	;# 
   905     059D                     	;# 
   906     059D                     	;# 
   907     059E                     	;# 
   908     059F                     	;# 
   909     060C                     	;# 
   910     060D                     	;# 
   911     060E                     	;# 
   912     060F                     	;# 
   913     0610                     	;# 
   914     0611                     	;# 
   915     0612                     	;# 
   916     0613                     	;# 
   917     0614                     	;# 
   918     070C                     	;# 
   919     070D                     	;# 
   920     070E                     	;# 
   921     070F                     	;# 
   922     0710                     	;# 
   923     0711                     	;# 
   924     0712                     	;# 
   925     0713                     	;# 
   926     0716                     	;# 
   927     0717                     	;# 
   928     0718                     	;# 
   929     0719                     	;# 
   930     071A                     	;# 
   931     071B                     	;# 
   932     071C                     	;# 
   933     071D                     	;# 
   934     0796                     	;# 
   935     0797                     	;# 
   936     0798                     	;# 
   937     0799                     	;# 
   938     079A                     	;# 
   939     079B                     	;# 
   940     080C                     	;# 
   941     080D                     	;# 
   942     080E                     	;# 
   943     080F                     	;# 
   944     0810                     	;# 
   945     0811                     	;# 
   946     0812                     	;# 
   947     0813                     	;# 
   948     0814                     	;# 
   949     081A                     	;# 
   950     081A                     	;# 
   951     081B                     	;# 
   952     081C                     	;# 
   953     081C                     	;# 
   954     081D                     	;# 
   955     081E                     	;# 
   956     081F                     	;# 
   957     088C                     	;# 
   958     088D                     	;# 
   959     088E                     	;# 
   960     088F                     	;# 
   961     0890                     	;# 
   962     0891                     	;# 
   963     0892                     	;# 
   964     0893                     	;# 
   965     0895                     	;# 
   966     0896                     	;# 
   967     090C                     	;# 
   968     090E                     	;# 
   969     090F                     	;# 
   970     091F                     	;# 
   971     098F                     	;# 
   972     098F                     	;# 
   973     0990                     	;# 
   974     0991                     	;# 
   975     0992                     	;# 
   976     0993                     	;# 
   977     0994                     	;# 
   978     0995                     	;# 
   979     0996                     	;# 
   980     0997                     	;# 
   981     0A19                     	;# 
   982     0A19                     	;# 
   983     0A1A                     	;# 
   984     0A1A                     	;# 
   985     0A1B                     	;# 
   986     0A1B                     	;# 
   987     0A1B                     	;# 
   988     0A1C                     	;# 
   989     0A1C                     	;# 
   990     0A1D                     	;# 
   991     0A1D                     	;# 
   992     0A1E                     	;# 
   993     0A1E                     	;# 
   994     0A1F                     	;# 
   995     0A1F                     	;# 
   996     0A1F                     	;# 
   997     1E0F                     	;# 
   998     1E10                     	;# 
   999     1E11                     	;# 
  1000     1E12                     	;# 
  1001     1E13                     	;# 
  1002     1E14                     	;# 
  1003     1E15                     	;# 
  1004     1E16                     	;# 
  1005     1E17                     	;# 
  1006     1E18                     	;# 
  1007     1E19                     	;# 
  1008     1E1A                     	;# 
  1009     1E1B                     	;# 
  1010     1E1C                     	;# 
  1011     1E1D                     	;# 
  1012     1E1E                     	;# 
  1013     1E1F                     	;# 
  1014     1E20                     	;# 
  1015     1E21                     	;# 
  1016     1E22                     	;# 
  1017     1E23                     	;# 
  1018     1E24                     	;# 
  1019     1E25                     	;# 
  1020     1E26                     	;# 
  1021     1E27                     	;# 
  1022     1E28                     	;# 
  1023     1E29                     	;# 
  1024     1E2A                     	;# 
  1025     1E2B                     	;# 
  1026     1E2C                     	;# 
  1027     1E2D                     	;# 
  1028     1E2E                     	;# 
  1029     1E2F                     	;# 
  1030     1E30                     	;# 
  1031     1E31                     	;# 
  1032     1E32                     	;# 
  1033     1E33                     	;# 
  1034     1E34                     	;# 
  1035     1E35                     	;# 
  1036     1E36                     	;# 
  1037     1E37                     	;# 
  1038     1E8F                     	;# 
  1039     1E90                     	;# 
  1040     1E91                     	;# 
  1041     1E92                     	;# 
  1042     1E93                     	;# 
  1043     1E9C                     	;# 
  1044     1EA1                     	;# 
  1045     1EA2                     	;# 
  1046     1EB1                     	;# 
  1047     1EBB                     	;# 
  1048     1EBC                     	;# 
  1049     1EBD                     	;# 
  1050     1EBE                     	;# 
  1051     1EC3                     	;# 
  1052     1EC5                     	;# 
  1053     1EC6                     	;# 
  1054     1EC7                     	;# 
  1055     1EC8                     	;# 
  1056     1EC9                     	;# 
  1057     1ECA                     	;# 
  1058     1ECB                     	;# 
  1059     1ECC                     	;# 
  1060     1ECD                     	;# 
  1061     1ECE                     	;# 
  1062     1F10                     	;# 
  1063     1F11                     	;# 
  1064     1F12                     	;# 
  1065     1F13                     	;# 
  1066     1F14                     	;# 
  1067     1F15                     	;# 
  1068     1F16                     	;# 
  1069     1F17                     	;# 
  1070     1F18                     	;# 
  1071     1F19                     	;# 
  1072     1F1A                     	;# 
  1073     1F1B                     	;# 
  1074     1F1C                     	;# 
  1075     1F1D                     	;# 
  1076     1F1E                     	;# 
  1077     1F1F                     	;# 
  1078     1F20                     	;# 
  1079     1F21                     	;# 
  1080     1F22                     	;# 
  1081     1F23                     	;# 
  1082     1F24                     	;# 
  1083     1F25                     	;# 
  1084     1F26                     	;# 
  1085     1F27                     	;# 
  1086     1F38                     	;# 
  1087     1F39                     	;# 
  1088     1F3A                     	;# 
  1089     1F3B                     	;# 
  1090     1F3C                     	;# 
  1091     1F3D                     	;# 
  1092     1F3E                     	;# 
  1093     1F3F                     	;# 
  1094     1F43                     	;# 
  1095     1F44                     	;# 
  1096     1F45                     	;# 
  1097     1F46                     	;# 
  1098     1F47                     	;# 
  1099     1F48                     	;# 
  1100     1F49                     	;# 
  1101     1F4A                     	;# 
  1102     1F4E                     	;# 
  1103     1F4F                     	;# 
  1104     1F50                     	;# 
  1105     1F51                     	;# 
  1106     1F52                     	;# 
  1107     1F53                     	;# 
  1108     1F54                     	;# 
  1109     1F55                     	;# 
  1110     1F65                     	;# 
  1111     1F68                     	;# 
  1112     1F69                     	;# 
  1113     1F6A                     	;# 
  1114     1F6B                     	;# 
  1115     1FE4                     	;# 
  1116     1FE5                     	;# 
  1117     1FE6                     	;# 
  1118     1FE7                     	;# 
  1119     1FE8                     	;# 
  1120     1FE8                     	;# 
  1121     1FE9                     	;# 
  1122     1FEA                     	;# 
  1123     1FEB                     	;# 
  1124     1FED                     	;# 
  1125     1FEE                     	;# 
  1126     1FEF                     	;# 
  1127     0014                     _TRISC	set	20
  1128     0013                     _TRISB	set	19
  1129     0012                     _TRISA	set	18
  1130     001A                     _LATC	set	26
  1131     0019                     _LATB	set	25
  1132     0018                     _LATA	set	24
  1133     000E                     _PORTCbits	set	14
  1134     0019                     _LATBbits	set	25
  1135     000B                     _INTCONbits	set	11
  1136     0013                     _TRISBbits	set	19
  1137     0014                     _TRISCbits	set	20
  1138     011B                     _SP1BRG	set	283
  1139     0119                     _RC1REG	set	281
  1140     011A                     _TX1REG	set	282
  1141     011F                     _BAUD1CONbits	set	287
  1142     011D                     _RC1STAbits	set	285
  1143     011E                     _TX1STAbits	set	286
  1144     070F                     _PIR3bits	set	1807
  1145     0719                     _PIE3bits	set	1817
  1146     0893                     _OSCFRQ	set	2195
  1147     0891                     _OSCEN	set	2193
  1148     088F                     _OSCCON3	set	2191
  1149     088D                     _OSCCON1bits	set	2189
  1150     088D                     _OSCCON1	set	2189
  1151     0A1B                     _SP2BRG	set	2587
  1152     0A19                     _RC2REG	set	2585
  1153     0A1A                     _TX2REG	set	2586
  1154     0A1F                     _BAUD2CONbits	set	2591
  1155     0A1D                     _RC2STAbits	set	2589
  1156     0A1E                     _TX2STAbits	set	2590
  1157     1ECB                     _RX1DTPPS	set	7883
  1158     1ECD                     _RX2DTPPS	set	7885
  1159     1F26                     _RC6PPS	set	7974
  1160     1F1A                     _RB2PPS	set	7962
  1161     1F4E                     _ANSELC	set	8014
  1162     1F43                     _ANSELB	set	8003
  1163     1F38                     _ANSELA	set	7992
  1164                           
  1165                           	psect	stringtext1
  1166     0252                     __pstringtext1:
  1167     0252                     STR_25:
  1168     0252  340D               	retlw	13
  1169     0253  340A               	retlw	10
  1170     0254  342B               	retlw	43	;'+'
  1171     0255  3443               	retlw	67	;'C'
  1172     0256  344D               	retlw	77	;'M'
  1173     0257  3447               	retlw	71	;'G'
  1174     0258  3452               	retlw	82	;'R'
  1175     0259  343A               	retlw	58	;':'
  1176     025A  3430               	retlw	48	;'0'
  1177     025B  342C               	retlw	44	;','
  1178     025C  3422               	retlw	34	;'"'
  1179     025D  3452               	retlw	82	;'R'
  1180     025E  3445               	retlw	69	;'E'
  1181     025F  3443               	retlw	67	;'C'
  1182     0260  3420               	retlw	32	;' '
  1183     0261  3455               	retlw	85	;'U'
  1184     0262  344E               	retlw	78	;'N'
  1185     0263  3452               	retlw	82	;'R'
  1186     0264  3445               	retlw	69	;'E'
  1187     0265  3441               	retlw	65	;'A'
  1188     0266  3444               	retlw	68	;'D'
  1189     0267  3422               	retlw	34	;'"'
  1190     0268  342C               	retlw	44	;','
  1191     0269  3422               	retlw	34	;'"'
  1192     026A  342B               	retlw	43	;'+'
  1193     026B  3434               	retlw	52	;'4'
  1194     026C  3431               	retlw	49	;'1'
  1195     026D  3437               	retlw	55	;'7'
  1196     026E  3439               	retlw	57	;'9'
  1197     026F  3433               	retlw	51	;'3'
  1198     0270  3430               	retlw	48	;'0'
  1199     0271  3431               	retlw	49	;'1'
  1200     0272  3438               	retlw	56	;'8'
  1201     0273  3432               	retlw	50	;'2'
  1202     0274  3435               	retlw	53	;'5'
  1203     0275  3436               	retlw	54	;'6'
  1204     0276  3422               	retlw	34	;'"'
  1205     0277  342C               	retlw	44	;','
  1206     0278  342C               	retlw	44	;','
  1207     0279  3422               	retlw	34	;'"'
  1208     027A  3432               	retlw	50	;'2'
  1209     027B  3433               	retlw	51	;'3'
  1210     027C  342F               	retlw	47	;'/'
  1211     027D  3430               	retlw	48	;'0'
  1212     027E  3431               	retlw	49	;'1'
  1213     027F  342F               	retlw	47	;'/'
  1214     0280  3430               	retlw	48	;'0'
  1215     0281  3431               	retlw	49	;'1'
  1216     0282  342C               	retlw	44	;','
  1217     0283  3432               	retlw	50	;'2'
  1218     0284  3432               	retlw	50	;'2'
  1219     0285  343A               	retlw	58	;':'
  1220     0286  3431               	retlw	49	;'1'
  1221     0287  3430               	retlw	48	;'0'
  1222     0288  343A               	retlw	58	;':'
  1223     0289  3430               	retlw	48	;'0'
  1224     028A  3430               	retlw	48	;'0'
  1225     028B  342B               	retlw	43	;'+'
  1226     028C  3430               	retlw	48	;'0'
  1227     028D  3438               	retlw	56	;'8'
  1228     028E  3422               	retlw	34	;'"'
  1229     028F  340D               	retlw	13
  1230     0290  340A               	retlw	10
  1231     0291  3400               	retlw	0
  1232                           
  1233                           	psect	stringtext2
  1234     0387                     __pstringtext2:
  1235     0387                     STR_30:
  1236     0387  3441               	retlw	65	;'A'
  1237     0388  3454               	retlw	84	;'T'
  1238     0389  342B               	retlw	43	;'+'
  1239     038A  3443               	retlw	67	;'C'
  1240     038B  344D               	retlw	77	;'M'
  1241     038C  3447               	retlw	71	;'G'
  1242     038D  3453               	retlw	83	;'S'
  1243     038E  343D               	retlw	61	;'='
  1244     038F  3422               	retlw	34	;'"'
  1245     0390  342B               	retlw	43	;'+'
  1246     0391  3434               	retlw	52	;'4'
  1247     0392  3431               	retlw	49	;'1'
  1248     0393  3437               	retlw	55	;'7'
  1249     0394  3439               	retlw	57	;'9'
  1250     0395  3433               	retlw	51	;'3'
  1251     0396  3430               	retlw	48	;'0'
  1252     0397  3431               	retlw	49	;'1'
  1253     0398  3438               	retlw	56	;'8'
  1254     0399  3432               	retlw	50	;'2'
  1255     039A  3435               	retlw	53	;'5'
  1256     039B  3436               	retlw	54	;'6'
  1257     039C  3422               	retlw	34	;'"'
  1258     039D  3400               	retlw	0
  1259                           
  1260                           	psect	stringtext3
  1261     03CC                     __pstringtext3:
  1262     03CC                     STR_12:
  1263     03CC  3441               	retlw	65	;'A'
  1264     03CD  3454               	retlw	84	;'T'
  1265     03CE  342B               	retlw	43	;'+'
  1266     03CF  3443               	retlw	67	;'C'
  1267     03D0  344E               	retlw	78	;'N'
  1268     03D1  344D               	retlw	77	;'M'
  1269     03D2  3449               	retlw	73	;'I'
  1270     03D3  343D               	retlw	61	;'='
  1271     03D4  3430               	retlw	48	;'0'
  1272     03D5  342C               	retlw	44	;','
  1273     03D6  3430               	retlw	48	;'0'
  1274     03D7  342C               	retlw	44	;','
  1275     03D8  3430               	retlw	48	;'0'
  1276     03D9  342C               	retlw	44	;','
  1277     03DA  3430               	retlw	48	;'0'
  1278     03DB  342C               	retlw	44	;','
  1279     03DC  3431               	retlw	49	;'1'
  1280     03DD  3400               	retlw	0
  1281                           
  1282                           	psect	stringtext4
  1283     03EC                     __pstringtext4:
  1284     03EC                     STR_31:
  1285     03EC  342A               	retlw	42	;'*'
  1286     03ED  3443               	retlw	67	;'C'
  1287     03EE  3446               	retlw	70	;'F'
  1288     03EF  342B               	retlw	43	;'+'
  1289     03F0  3443               	retlw	67	;'C'
  1290     03F1  344D               	retlw	77	;'M'
  1291     03F2  3447               	retlw	71	;'G'
  1292     03F3  3453               	retlw	83	;'S'
  1293     03F4  343A               	retlw	58	;':'
  1294     03F5  3420               	retlw	32	;' '
  1295     03F6  3437               	retlw	55	;'7'
  1296     03F7  3433               	retlw	51	;'3'
  1297     03F8  3400               	retlw	0
  1298                           
  1299                           	psect	stringtext5
  1300     03F9                     __pstringtext5:
  1301     03F9                     STR_29:
  1302     03F9  342B               	retlw	43	;'+'
  1303     03FA  3443               	retlw	67	;'C'
  1304     03FB  344D               	retlw	77	;'M'
  1305     03FC  3447               	retlw	71	;'G'
  1306     03FD  3452               	retlw	82	;'R'
  1307     03FE  343A               	retlw	58	;':'
  1308     03FF  3420               	retlw	32	;' '
  1309     0400  3430               	retlw	48	;'0'
  1310     0401  342C               	retlw	44	;','
  1311     0402  342C               	retlw	44	;','
  1312     0403  3430               	retlw	48	;'0'
  1313     0404  3400               	retlw	0
  1314                           
  1315                           	psect	stringtext6
  1316     0405                     __pstringtext6:
  1317     0405                     STR_14:
  1318     0405  3441               	retlw	65	;'A'
  1319     0406  3454               	retlw	84	;'T'
  1320     0407  342B               	retlw	43	;'+'
  1321     0408  3443               	retlw	67	;'C'
  1322     0409  344D               	retlw	77	;'M'
  1323     040A  3447               	retlw	71	;'G'
  1324     040B  3444               	retlw	68	;'D'
  1325     040C  343D               	retlw	61	;'='
  1326     040D  3431               	retlw	49	;'1'
  1327     040E  3400               	retlw	0
  1328                           
  1329                           	psect	stringtext7
  1330     040F                     __pstringtext7:
  1331     040F                     STR_22:
  1332     040F  3441               	retlw	65	;'A'
  1333     0410  3454               	retlw	84	;'T'
  1334     0411  342B               	retlw	43	;'+'
  1335     0412  3443               	retlw	67	;'C'
  1336     0413  344D               	retlw	77	;'M'
  1337     0414  3447               	retlw	71	;'G'
  1338     0415  3446               	retlw	70	;'F'
  1339     0416  343D               	retlw	61	;'='
  1340     0417  3431               	retlw	49	;'1'
  1341     0418  3400               	retlw	0
  1342                           
  1343                           	psect	stringtext8
  1344     0419                     __pstringtext8:
  1345     0419                     STR_24:
  1346     0419  3441               	retlw	65	;'A'
  1347     041A  3454               	retlw	84	;'T'
  1348     041B  342B               	retlw	43	;'+'
  1349     041C  3443               	retlw	67	;'C'
  1350     041D  344D               	retlw	77	;'M'
  1351     041E  3447               	retlw	71	;'G'
  1352     041F  3452               	retlw	82	;'R'
  1353     0420  343D               	retlw	61	;'='
  1354     0421  3431               	retlw	49	;'1'
  1355     0422  3400               	retlw	0
  1356                           
  1357                           	psect	stringtext9
  1358     0423                     __pstringtext9:
  1359     0423                     STR_20:
  1360     0423  3441               	retlw	65	;'A'
  1361     0424  3454               	retlw	84	;'T'
  1362     0425  342B               	retlw	43	;'+'
  1363     0426  3443               	retlw	67	;'C'
  1364     0427  344D               	retlw	77	;'M'
  1365     0428  3447               	retlw	71	;'G'
  1366     0429  3456               	retlw	86	;'V'
  1367     042A  343D               	retlw	61	;'='
  1368     042B  3431               	retlw	49	;'1'
  1369     042C  3400               	retlw	0
  1370                           
  1371                           	psect	stringtext10
  1372     042D                     __pstringtext10:
  1373     042D                     STR_16:
  1374     042D  3441               	retlw	65	;'A'
  1375     042E  3454               	retlw	84	;'T'
  1376     042F  342B               	retlw	43	;'+'
  1377     0430  3443               	retlw	67	;'C'
  1378     0431  344D               	retlw	77	;'M'
  1379     0432  3447               	retlw	71	;'G'
  1380     0433  3444               	retlw	68	;'D'
  1381     0434  343D               	retlw	61	;'='
  1382     0435  3432               	retlw	50	;'2'
  1383     0436  3400               	retlw	0
  1384                           
  1385                           	psect	stringtext11
  1386     0437                     __pstringtext11:
  1387     0437                     STR_18:
  1388     0437  3441               	retlw	65	;'A'
  1389     0438  3454               	retlw	84	;'T'
  1390     0439  342B               	retlw	43	;'+'
  1391     043A  3443               	retlw	67	;'C'
  1392     043B  344D               	retlw	77	;'M'
  1393     043C  3447               	retlw	71	;'G'
  1394     043D  3444               	retlw	68	;'D'
  1395     043E  343D               	retlw	61	;'='
  1396     043F  3433               	retlw	51	;'3'
  1397     0440  3400               	retlw	0
  1398                           
  1399                           	psect	stringtext12
  1400     0441                     __pstringtext12:
  1401     0441                     STR_9:
  1402     0441  3443               	retlw	67	;'C'
  1403     0442  3469               	retlw	105	;'i'
  1404     0443  346E               	retlw	110	;'n'
  1405     0444  3474               	retlw	116	;'t'
  1406     0445  3465               	retlw	101	;'e'
  1407     0446  3472               	retlw	114	;'r'
  1408     0447  3469               	retlw	105	;'i'
  1409     0448  346F               	retlw	111	;'o'
  1410     0449  346E               	retlw	110	;'n'
  1411     044A  3400               	retlw	0
  1412                           
  1413                           	psect	stringtext13
  1414     0463                     __pstringtext13:
  1415     0463                     STR_26:
  1416     0463  3434               	retlw	52	;'4'
  1417     0464  3431               	retlw	49	;'1'
  1418     0465  3433               	retlw	51	;'3'
  1419     0466  3439               	retlw	57	;'9'
  1420     0467  3420               	retlw	32	;' '
  1421     0468  343F               	retlw	63	;'?'
  1422     0469  3400               	retlw	0
  1423                           
  1424                           	psect	stringtext14
  1425     046A                     __pstringtext14:
  1426     046A                     STR_8:
  1427     046A  3441               	retlw	65	;'A'
  1428     046B  3454               	retlw	84	;'T'
  1429     046C  342B               	retlw	43	;'+'
  1430     046D  3447               	retlw	71	;'G'
  1431     046E  344D               	retlw	77	;'M'
  1432     046F  3449               	retlw	73	;'I'
  1433     0470  3400               	retlw	0
  1434                           
  1435                           	psect	stringtext15
  1436     0471                     __pstringtext15:
  1437     0471                     STR_10:
  1438     0471  3441               	retlw	65	;'A'
  1439     0472  3454               	retlw	84	;'T'
  1440     0473  342B               	retlw	43	;'+'
  1441     0474  3447               	retlw	71	;'G'
  1442     0475  344D               	retlw	77	;'M'
  1443     0476  344D               	retlw	77	;'M'
  1444     0477  3400               	retlw	0
  1445                           
  1446                           	psect	stringtext16
  1447     0478                     __pstringtext16:
  1448     0478                     STR_11:
  1449     0478  3442               	retlw	66	;'B'
  1450     0479  3447               	retlw	71	;'G'
  1451     047A  3453               	retlw	83	;'S'
  1452     047B  3432               	retlw	50	;'2'
  1453     047C  342D               	retlw	45	;'-'
  1454     047D  3457               	retlw	87	;'W'
  1455     047E  3400               	retlw	0
  1456                           
  1457                           	psect	stringtext17
  1458     047F                     __pstringtext17:
  1459     047F                     STR_1:
  1460     047F  340D               	retlw	13
  1461     0480  340A               	retlw	10
  1462     0481  344F               	retlw	79	;'O'
  1463     0482  344B               	retlw	75	;'K'
  1464     0483  340D               	retlw	13
  1465     0484  340A               	retlw	10
  1466     0485  3400               	retlw	0
  1467                           
  1468                           	psect	stringtext18
  1469     048C                     __pstringtext18:
  1470     048C                     STR_6:
  1471     048C  3441               	retlw	65	;'A'
  1472     048D  3454               	retlw	84	;'T'
  1473     048E  3445               	retlw	69	;'E'
  1474     048F  3430               	retlw	48	;'0'
  1475     0490  3400               	retlw	0
  1476                           
  1477                           	psect	stringtext19
  1478     0491                     __pstringtext19:
  1479     0491                     STR_4:
  1480     0491  3441               	retlw	65	;'A'
  1481     0492  3454               	retlw	84	;'T'
  1482     0493  3426               	retlw	38	;'&'
  1483     0494  3446               	retlw	70	;'F'
  1484     0495  3400               	retlw	0
  1485                           
  1486                           	psect	stringtext20
  1487     0496                     __pstringtext20:
  1488     0496                     STR_2:
  1489     0496  3441               	retlw	65	;'A'
  1490     0497  3454               	retlw	84	;'T'
  1491     0498  3400               	retlw	0
  1492                           
  1493                           	psect	stringtext21
  1494     0000                     __pstringtext21:
  1495     0291                     
  1496                           	psect	cinit
  1497     0041                     start_initialization:	
  1498                           ; #config settings
  1499                           
  1500     0041                     __initialization:
  1501                           
  1502                           ; Clear objects allocated to COMMON
  1503     0041  01F7               	clrf	__pbssCOMMON& (0+127)
  1504     0042  01F8               	clrf	(__pbssCOMMON+1)& (0+127)
  1505     0043  01F9               	clrf	(__pbssCOMMON+2)& (0+127)
  1506     0044  01FA               	clrf	(__pbssCOMMON+3)& (0+127)
  1507                           
  1508                           ; Clear objects allocated to BANK0
  1509     0045  3048               	movlw	low __pbssBANK0
  1510     0046  0084               	movwf	4
  1511     0047  3000               	movlw	high __pbssBANK0
  1512     0048  0085               	movwf	5
  1513     0049  3015               	movlw	21
  1514     004A  3184  2486  3180   	fcall	clear_ram0
  1515                           
  1516                           ; Clear objects allocated to BANK1
  1517     004D  30A0               	movlw	low __pbssBANK1
  1518     004E  0084               	movwf	4
  1519     004F  3000               	movlw	high __pbssBANK1
  1520     0050  0085               	movwf	5
  1521     0051  3041               	movlw	65
  1522     0052  3184  2486  3180   	fcall	clear_ram0
  1523                           
  1524                           ; Clear objects allocated to BANK2
  1525     0055  3020               	movlw	low __pbssBANK2
  1526     0056  0084               	movwf	4
  1527     0057  3001               	movlw	high __pbssBANK2
  1528     0058  0085               	movwf	5
  1529     0059  3019               	movlw	25
  1530     005A  3184  2486  3180   	fcall	clear_ram0
  1531     005D                     end_of_initialization:	
  1532                           ;End of C runtime variable initialization code
  1533                           
  1534     005D                     __end_of__initialization:
  1535     005D  107E               	bcf	int$flags,0	;clear compiler interrupt flag (level 1)
  1536     005E  0140               	movlb	0
  1537     005F  3180  2861         	ljmp	_main	;jump to C main() function
  1538                           
  1539                           	psect	bssCOMMON
  1540     0077                     __pbssCOMMON:
  1541     0077                     RS232_Read@position:
  1542     0077                     	ds	1
  1543     0078                     _cmdRS323Receive:
  1544     0078                     	ds	1
  1545     0079                     Modem_Read@position:
  1546     0079                     	ds	1
  1547     007A                     _cmdModemReceive:
  1548     007A                     	ds	1
  1549                           
  1550                           	psect	bssBANK0
  1551     0048                     __pbssBANK0:
  1552     0048                     _read_modem:
  1553     0048                     	ds	20
  1554     005C                     _message:
  1555     005C                     	ds	1
  1556                           
  1557                           	psect	bssBANK1
  1558     00A0                     __pbssBANK1:
  1559     00A0                     _read_RS232:
  1560     00A0                     	ds	25
  1561     00B9                     main@F7518:
  1562     00B9                     	ds	20
  1563     00CD                     main@F7516:
  1564     00CD                     	ds	20
  1565                           
  1566                           	psect	bssBANK2
  1567     0120                     __pbssBANK2:
  1568     0120                     _read_RS232@My_UART2_1$F532:
  1569     0120                     	ds	25
  1570                           
  1571                           	psect	clrtext
  1572     0486                     clear_ram0:	
  1573                           ;	Called with FSR0 containing the base address, and
  1574                           ;	WREG with the size to clear
  1575                           
  1576     0486  0064               	clrwdt	;clear the watchdog before getting into this loop
  1577     0487                     clrloop0:
  1578     0487  0180               	clrf	0	;clear RAM location pointed to by FSR
  1579     0488  3101               	addfsr 0,1
  1580     0489  0B89               	decfsz	9,f	;Have we reached the end of clearing yet?
  1581     048A  2C87               	goto	clrloop0	;have we reached the end yet?
  1582     048B  3400               	retlw	0	;all done for this memory range, return
  1583                           
  1584                           	psect	cstackCOMMON
  1585     0070                     __pcstackCOMMON:
  1586     0070                     ?_RS232_EmptyData:
  1587     0070                     ?_PIC_Init:	
  1588                           ; 1 bytes @ 0x0
  1589                           
  1590     0070                     ?_UART1_Init:	
  1591                           ; 1 bytes @ 0x0
  1592                           
  1593     0070                     ?_UART1_DataIsReceived:	
  1594                           ; 1 bytes @ 0x0
  1595                           
  1596     0070                     ?_Modem_EmptyData:	
  1597                           ; 1 bytes @ 0x0
  1598                           
  1599     0070                     ?_Modem_cmd:	
  1600                           ; 1 bytes @ 0x0
  1601                           
  1602     0070                     ?_UART2_Init:	
  1603                           ; 1 bytes @ 0x0
  1604                           
  1605     0070                     ?_UART2_Write:	
  1606                           ; 1 bytes @ 0x0
  1607                           
  1608     0070                     ?_UART2_Read:	
  1609                           ; 1 bytes @ 0x0
  1610                           
  1611     0070                     ??_UART2_Read:	
  1612                           ; 1 bytes @ 0x0
  1613                           
  1614     0070                     ?_UART2_DataIsReceived:	
  1615                           ; 1 bytes @ 0x0
  1616                           
  1617     0070                     ?_UART2_SendOK:	
  1618                           ; 1 bytes @ 0x0
  1619                           
  1620     0070                     ?_RS232_Read:	
  1621                           ; 1 bytes @ 0x0
  1622                           
  1623     0070                     ??_RS232_Read:	
  1624                           ; 1 bytes @ 0x0
  1625                           
  1626     0070                     ?_RS232_cmd:	
  1627                           ; 1 bytes @ 0x0
  1628                           
  1629     0070                     ?_main:	
  1630                           ; 1 bytes @ 0x0
  1631                           
  1632     0070                     ?_INTERRUPT_InterruptManager:	
  1633                           ; 1 bytes @ 0x0
  1634                           
  1635                           
  1636                           ; 1 bytes @ 0x0
  1637     0070                     	ds	1
  1638     0071                     RS232_Read@data:
  1639                           
  1640                           ; 1 bytes @ 0x1
  1641     0071                     	ds	1
  1642     0072                     ??_RS232_EmptyData:
  1643     0072                     ??_PIC_Init:	
  1644                           ; 1 bytes @ 0x2
  1645                           
  1646     0072                     ??_UART1_Init:	
  1647                           ; 1 bytes @ 0x2
  1648                           
  1649     0072                     ??_UART1_DataIsReceived:	
  1650                           ; 1 bytes @ 0x2
  1651                           
  1652     0072                     ??_Modem_EmptyData:	
  1653                           ; 1 bytes @ 0x2
  1654                           
  1655     0072                     ??_Modem_cmd:	
  1656                           ; 1 bytes @ 0x2
  1657                           
  1658     0072                     ??_UART2_Init:	
  1659                           ; 1 bytes @ 0x2
  1660                           
  1661     0072                     ??_UART2_Write:	
  1662                           ; 1 bytes @ 0x2
  1663                           
  1664     0072                     ??_UART2_DataIsReceived:	
  1665                           ; 1 bytes @ 0x2
  1666                           
  1667     0072                     ??_RS232_cmd:	
  1668                           ; 1 bytes @ 0x2
  1669                           
  1670     0072                     ??_INTERRUPT_InterruptManager:	
  1671                           ; 1 bytes @ 0x2
  1672                           
  1673     0072                     ?_strcmp:	
  1674                           ; 1 bytes @ 0x2
  1675                           
  1676     0072                     UART2_Write@data:	
  1677                           ; 2 bytes @ 0x2
  1678                           
  1679     0072                     strcmp@l:	
  1680                           ; 1 bytes @ 0x2
  1681                           
  1682                           
  1683                           ; 2 bytes @ 0x2
  1684     0072                     	ds	1
  1685     0073                     ?_UART2_SendStringCRLF:
  1686     0073                     ?_UART2_SendString:	
  1687                           ; 1 bytes @ 0x3
  1688                           
  1689     0073                     Modem_cmd@str:	
  1690                           ; 1 bytes @ 0x3
  1691                           
  1692     0073                     RS232_cmd@str:	
  1693                           ; 1 bytes @ 0x3
  1694                           
  1695     0073                     UART2_SendStringCRLF@str:	
  1696                           ; 1 bytes @ 0x3
  1697                           
  1698     0073                     UART2_SendString@str:	
  1699                           ; 2 bytes @ 0x3
  1700                           
  1701                           
  1702                           ; 2 bytes @ 0x3
  1703     0073                     	ds	1
  1704     0074                     Modem_cmd@position:
  1705     0074                     RS232_cmd@position:	
  1706                           ; 1 bytes @ 0x4
  1707                           
  1708     0074                     strcmp@r:	
  1709                           ; 1 bytes @ 0x4
  1710                           
  1711                           
  1712                           ; 1 bytes @ 0x4
  1713     0074                     	ds	1
  1714     0075                     ??_strcmp:
  1715     0075                     ??_UART2_SendStringCRLF:	
  1716                           ; 1 bytes @ 0x5
  1717                           
  1718     0075                     ??_UART2_SendString:	
  1719                           ; 1 bytes @ 0x5
  1720                           
  1721                           
  1722                           ; 1 bytes @ 0x5
  1723     0075                     	ds	1
  1724     0076                     ??_UART2_SendOK:
  1725     0076                     ??_main:	
  1726                           ; 1 bytes @ 0x6
  1727                           
  1728                           
  1729                           ; 1 bytes @ 0x6
  1730     0076                     	ds	1
  1731                           
  1732                           	psect	cstackBANK0
  1733     0020                     __pcstackBANK0:
  1734     0020                     main@str_modem:
  1735                           
  1736                           ; 20 bytes @ 0x0
  1737     0020                     	ds	20
  1738     0034                     main@str_RS232:
  1739                           
  1740                           ; 20 bytes @ 0x14
  1741     0034                     	ds	20
  1742                           
  1743                           	psect	maintext
  1744     0061                     __pmaintext:	
  1745 ;;
  1746 ;;Main: autosize = 0, tempsize = 1, incstack = 0, save=0
  1747 ;;
  1748 ;; *************** function _main *****************
  1749 ;; Defined at:
  1750 ;;		line 106 in file "main_01.c"
  1751 ;; Parameters:    Size  Location     Type
  1752 ;;		None
  1753 ;; Auto vars:     Size  Location     Type
  1754 ;;  str_RS232      20   20[BANK0 ] unsigned char [20]
  1755 ;;  str_modem      20    0[BANK0 ] unsigned char [20]
  1756 ;; Return value:  Size  Location     Type
  1757 ;;                  1    wreg      void 
  1758 ;; Registers used:
  1759 ;;		wreg, fsr0l, fsr0h, fsr1l, fsr1h, status,2, status,0, pclath, cstack
  1760 ;; Tracked objects:
  1761 ;;		On entry : B3F/0
  1762 ;;		On exit  : 0/0
  1763 ;;		Unchanged: 0/0
  1764 ;; Data sizes:     COMMON   BANK0   BANK1   BANK2   BANK3   BANK4   BANK5   BANK6   BANK7   BANK8   BANK9  BANK10  BANK1
      +1  BANK12  BANK13  BANK14  BANK15  BANK16  BANK17  BANK18  BANK19  BANK20  BANK21  BANK22  BANK23  BANK24  BANK25
  1765 ;;      Params:         0       0       0       0       0       0       0       0       0       0       0       0       
      +0       0       0       0       0       0       0       0       0       0       0       0       0       0       0
  1766 ;;      Locals:         0      40       0       0       0       0       0       0       0       0       0       0       
      +0       0       0       0       0       0       0       0       0       0       0       0       0       0       0
  1767 ;;      Temps:          1       0       0       0       0       0       0       0       0       0       0       0       
      +0       0       0       0       0       0       0       0       0       0       0       0       0       0       0
  1768 ;;      Totals:         1      40       0       0       0       0       0       0       0       0       0       0       
      +0       0       0       0       0       0       0       0       0       0       0       0       0       0       0
  1769 ;;Total ram usage:       41 bytes
  1770 ;; Hardware stack levels required when called: 6
  1771 ;; This function calls:
  1772 ;;		_Modem_EmptyData
  1773 ;;		_Modem_cmd
  1774 ;;		_PIC_Init
  1775 ;;		_RS232_cmd
  1776 ;;		_UART1_DataIsReceived
  1777 ;;		_UART1_Init
  1778 ;;		_UART2_DataIsReceived
  1779 ;;		_UART2_Init
  1780 ;;		_UART2_SendOK
  1781 ;;		_UART2_SendString
  1782 ;;		_UART2_SendStringCRLF
  1783 ;;		_strcmp
  1784 ;; This function is called by:
  1785 ;;		Startup code after reset
  1786 ;; This function uses a non-reentrant model
  1787 ;;
  1788                           
  1789     0061                     _main:	
  1790                           ;psect for function _main
  1791                           
  1792     0061                     l1291:	
  1793                           ;incstack = 0
  1794                           ; Regs used in _main: [wreg-fsr1h+status,2+status,0+pclath+cstack]
  1795                           
  1796                           
  1797                           ;main_01.c: 108:     char str_modem[20] = {0};
  1798     0061  3020               	movlw	low main@str_modem
  1799     0062  0086               	movwf	6
  1800     0063  3000               	movlw	high main@str_modem
  1801     0064  0087               	movwf	7
  1802     0065  3014               	movlw	20
  1803     0066  00F6               	movwf	??_main
  1804     0067  3000               	movlw	0
  1805     0068                     u620:
  1806     0068  001E               	movwi fsr1++
  1807     0069  0BF6               	decfsz	??_main,f
  1808     006A  2868               	goto	u620
  1809                           
  1810                           ;main_01.c: 109:     char str_RS232[20] = {0};
  1811     006B  3034               	movlw	low main@str_RS232
  1812     006C  0086               	movwf	6
  1813     006D  3000               	movlw	high main@str_RS232
  1814     006E  0087               	movwf	7
  1815     006F  3014               	movlw	20
  1816     0070  00F6               	movwf	??_main
  1817     0071  3000               	movlw	0
  1818     0072                     u630:
  1819     0072  001E               	movwi fsr1++
  1820     0073  0BF6               	decfsz	??_main,f
  1821     0074  2872               	goto	u630
  1822     0075                     l1293:
  1823                           
  1824                           ;main_01.c: 111:     PIC_Init();
  1825     0075  3182  22E8  3180   	fcall	_PIC_Init
  1826     0078                     l1295:
  1827                           
  1828                           ;main_01.c: 112:     UART1_Init();
  1829     0078  3183  23B5  3180   	fcall	_UART1_Init
  1830     007B                     l1297:
  1831                           
  1832                           ;main_01.c: 113:     UART2_Init();
  1833     007B  3183  236B  3180   	fcall	_UART2_Init
  1834     007E                     l1299:
  1835                           
  1836                           ;main_01.c: 114:     (INTCONbits.GIE = 1);
  1837     007E  178B               	bsf	11,7	;volatile
  1838     007F                     l1301:
  1839                           
  1840                           ;main_01.c: 115:     (INTCONbits.PEIE = 1);
  1841     007F  170B               	bsf	11,6	;volatile
  1842     0080                     l1303:
  1843                           
  1844                           ;main_01.c: 116:     LATBbits.LATB5 = 0;
  1845     0080  0140               	movlb	0	; select bank0
  1846     0081  1299               	bcf	25,5	;volatile
  1847     0082                     l1305:
  1848                           
  1849                           ;main_01.c: 120:     {;main_01.c: 121:         if (PORTCbits.RC0 == 0)
  1850     0082  0140               	movlb	0	; select bank0
  1851     0083  180E               	btfsc	14,0	;volatile
  1852     0084  2886               	goto	u641
  1853     0085  2887               	goto	u640
  1854     0086                     u641:
  1855     0086  288F               	goto	l231
  1856     0087                     u640:
  1857     0087                     l1307:
  1858                           
  1859                           ;main_01.c: 122:         {;main_01.c: 123:             message = 1;
  1860     0087  01DC               	clrf	_message
  1861     0088  0ADC               	incf	_message,f
  1862     0089                     l232:	
  1863                           ;main_01.c: 124:             while (PORTCbits.RC0 == 0);
  1864                           
  1865     0089  1C0E               	btfss	14,0	;volatile
  1866     008A  288C               	goto	u651
  1867     008B  288D               	goto	u650
  1868     008C                     u651:
  1869     008C  2889               	goto	l232
  1870     008D                     u650:
  1871     008D                     l234:
  1872                           
  1873                           ;main_01.c: 125:             message = 1;
  1874     008D  01DC               	clrf	_message
  1875     008E  0ADC               	incf	_message,f
  1876     008F                     l231:	
  1877                           ;main_01.c: 126:         }
  1878                           
  1879                           
  1880                           ;main_01.c: 128:         if (PORTCbits.RC1 == 0)
  1881     008F  188E               	btfsc	14,1	;volatile
  1882     0090  2892               	goto	u661
  1883     0091  2893               	goto	u660
  1884     0092                     u661:
  1885     0092  289C               	goto	l235
  1886     0093                     u660:
  1887     0093                     l1309:
  1888                           
  1889                           ;main_01.c: 129:         {;main_01.c: 130:             message = 0;
  1890     0093  01DC               	clrf	_message
  1891     0094                     l1311:
  1892                           
  1893                           ;main_01.c: 131:             Modem_EmptyData();
  1894     0094  3184  245B  3180   	fcall	_Modem_EmptyData
  1895     0097                     l236:	
  1896                           ;main_01.c: 133:             while (PORTCbits.RC1 == 0);
  1897                           
  1898     0097  0140               	movlb	0	; select bank0
  1899     0098  1C8E               	btfss	14,1	;volatile
  1900     0099  289B               	goto	u671
  1901     009A  289C               	goto	u670
  1902     009B                     u671:
  1903     009B  2897               	goto	l236
  1904     009C                     u670:
  1905     009C                     l235:	
  1906                           ;main_01.c: 134:         }
  1907                           
  1908                           
  1909                           ;main_01.c: 136:         if (PORTCbits.RC2 == 0)
  1910     009C  190E               	btfsc	14,2	;volatile
  1911     009D  289F               	goto	u681
  1912     009E  28A0               	goto	u680
  1913     009F                     u681:
  1914     009F  28AD               	goto	l1315
  1915     00A0                     u680:
  1916     00A0                     l1313:
  1917                           
  1918                           ;main_01.c: 137:         {;main_01.c: 138:             Modem_cmd(str_modem);
  1919     00A0  3020               	movlw	(low (main@str_modem| 0))& (0+255)
  1920     00A1  3183  230D  3180   	fcall	_Modem_cmd
  1921                           
  1922                           ;main_01.c: 139:             RS232_cmd(str_RS232);
  1923     00A4  3034               	movlw	(low (main@str_RS232| 0))& (0+255)
  1924     00A5  3183  234C  3180   	fcall	_RS232_cmd
  1925     00A8                     l240:	
  1926                           ;main_01.c: 140:             while (PORTCbits.RC2 == 0);
  1927                           
  1928     00A8  0140               	movlb	0	; select bank0
  1929     00A9  1D0E               	btfss	14,2	;volatile
  1930     00AA  28AC               	goto	u691
  1931     00AB  28AD               	goto	u690
  1932     00AC                     u691:
  1933     00AC  28A8               	goto	l240
  1934     00AD                     u690:
  1935     00AD                     l1315:
  1936                           
  1937                           ;main_01.c: 143:         if ((UART1_DataIsReceived()))
  1938     00AD  3184  249E  3180   	fcall	_UART1_DataIsReceived
  1939     00B0  3A00               	xorlw	0
  1940     00B1  1903               	skipnz
  1941     00B2  28B4               	goto	u701
  1942     00B3  28B5               	goto	u700
  1943     00B4                     u701:
  1944     00B4  28BB               	goto	l1321
  1945     00B5                     u700:
  1946     00B5                     l1317:
  1947                           
  1948                           ;main_01.c: 144:         {;main_01.c: 145:             Modem_cmd(str_modem);
  1949     00B5  3020               	movlw	(low (main@str_modem| 0))& (0+255)
  1950     00B6  3183  230D  3180   	fcall	_Modem_cmd
  1951     00B9                     l1319:
  1952                           
  1953                           ;main_01.c: 146:             LATBbits.LATB5 = 0;
  1954     00B9  0140               	movlb	0	; select bank0
  1955     00BA  1299               	bcf	25,5	;volatile
  1956     00BB                     l1321:
  1957                           
  1958                           ;main_01.c: 150:         if ((UART2_DataIsReceived()))
  1959     00BB  3184  249C  3180   	fcall	_UART2_DataIsReceived
  1960     00BE  3A00               	xorlw	0
  1961     00BF  1903               	skipnz
  1962     00C0  28C2               	goto	u711
  1963     00C1  28C3               	goto	u710
  1964     00C2                     u711:
  1965     00C2  2882               	goto	l1305
  1966     00C3                     u710:
  1967     00C3                     l1323:
  1968                           
  1969                           ;main_01.c: 151:         {;main_01.c: 152:             LATBbits.LATB4 = 0;
  1970     00C3  0140               	movlb	0	; select bank0
  1971     00C4  1219               	bcf	25,4	;volatile
  1972     00C5                     l1325:
  1973                           
  1974                           ;main_01.c: 153:             RS232_cmd(str_RS232);
  1975     00C5  3034               	movlw	(low (main@str_RS232| 0))& (0+255)
  1976     00C6  3183  234C  3180   	fcall	_RS232_cmd
  1977                           
  1978                           ;main_01.c: 155:             if (strcmp("AT", str_RS232) == 0)
  1979     00C9  3096               	movlw	low (STR_2| (0+32768))
  1980     00CA  00F2               	movwf	strcmp@l
  1981     00CB  3084               	movlw	high (STR_2| (0+32768))
  1982     00CC  00F3               	movwf	strcmp@l+1
  1983     00CD  3034               	movlw	(low (main@str_RS232| 0))& (0+255)
  1984     00CE  00F4               	movwf	strcmp@r
  1985     00CF  3182  2292  3180   	fcall	_strcmp
  1986     00D2  0872               	movf	?_strcmp,w
  1987     00D3  0473               	iorwf	?_strcmp+1,w
  1988     00D4  1D03               	btfss	3,2
  1989     00D5  28D7               	goto	u721
  1990     00D6  28D8               	goto	u720
  1991     00D7                     u721:
  1992     00D7  28E3               	goto	l1329
  1993     00D8                     u720:
  1994     00D8                     l1327:
  1995                           
  1996                           ;main_01.c: 156:             {;main_01.c: 157:                 UART2_SendStringCRLF("");
  1997     00D8  3091               	movlw	low ((STR_25+63)| (0+32768))
  1998     00D9  00F3               	movwf	UART2_SendStringCRLF@str
  1999     00DA  3082               	movlw	high ((STR_25+63)| (0+32768))
  2000     00DB  00F4               	movwf	UART2_SendStringCRLF@str+1
  2001     00DC  3183  232D  3180   	fcall	_UART2_SendStringCRLF
  2002                           
  2003                           ;main_01.c: 158:                 UART2_SendOK();
  2004     00DF  3184  244B  3180   	fcall	_UART2_SendOK
  2005                           
  2006                           ;main_01.c: 159:             }
  2007     00E2  2A4D               	goto	l246
  2008     00E3                     l1329:
  2009     00E3  3091               	movlw	low (STR_4| (0+32768))
  2010     00E4  00F2               	movwf	strcmp@l
  2011     00E5  3084               	movlw	high (STR_4| (0+32768))
  2012     00E6  00F3               	movwf	strcmp@l+1
  2013     00E7  3034               	movlw	(low (main@str_RS232| 0))& (0+255)
  2014     00E8  00F4               	movwf	strcmp@r
  2015     00E9  3182  2292  3180   	fcall	_strcmp
  2016     00EC  0872               	movf	?_strcmp,w
  2017     00ED  0473               	iorwf	?_strcmp+1,w
  2018     00EE  1D03               	btfss	3,2
  2019     00EF  28F1               	goto	u731
  2020     00F0  28F2               	goto	u730
  2021     00F1                     u731:
  2022     00F1  28FD               	goto	l1333
  2023     00F2                     u730:
  2024     00F2                     l1331:
  2025                           
  2026                           ;main_01.c: 161:             {;main_01.c: 162:                 UART2_SendStringCRLF("");
  2027     00F2  3091               	movlw	low ((STR_25+63)| (0+32768))
  2028     00F3  00F3               	movwf	UART2_SendStringCRLF@str
  2029     00F4  3082               	movlw	high ((STR_25+63)| (0+32768))
  2030     00F5  00F4               	movwf	UART2_SendStringCRLF@str+1
  2031     00F6  3183  232D  3180   	fcall	_UART2_SendStringCRLF
  2032                           
  2033                           ;main_01.c: 163:                 UART2_SendOK();
  2034     00F9  3184  244B  3180   	fcall	_UART2_SendOK
  2035                           
  2036                           ;main_01.c: 164:             }
  2037     00FC  2A4D               	goto	l246
  2038     00FD                     l1333:
  2039     00FD  308C               	movlw	low (STR_6| (0+32768))
  2040     00FE  00F2               	movwf	strcmp@l
  2041     00FF  3084               	movlw	high (STR_6| (0+32768))
  2042     0100  00F3               	movwf	strcmp@l+1
  2043     0101  3034               	movlw	(low (main@str_RS232| 0))& (0+255)
  2044     0102  00F4               	movwf	strcmp@r
  2045     0103  3182  2292  3180   	fcall	_strcmp
  2046     0106  0872               	movf	?_strcmp,w
  2047     0107  0473               	iorwf	?_strcmp+1,w
  2048     0108  1D03               	btfss	3,2
  2049     0109  290B               	goto	u741
  2050     010A  290C               	goto	u740
  2051     010B                     u741:
  2052     010B  2917               	goto	l1337
  2053     010C                     u740:
  2054     010C                     l1335:
  2055                           
  2056                           ;main_01.c: 166:             {;main_01.c: 167:                 UART2_SendString("ATE0");
  2057     010C  308C               	movlw	low (STR_6| (0+32768))
  2058     010D  00F3               	movwf	UART2_SendString@str
  2059     010E  3084               	movlw	high (STR_6| (0+32768))
  2060     010F  00F4               	movwf	UART2_SendString@str+1
  2061     0110  3183  239E  3180   	fcall	_UART2_SendString
  2062                           
  2063                           ;main_01.c: 168:                 UART2_SendOK();
  2064     0113  3184  244B  3180   	fcall	_UART2_SendOK
  2065                           
  2066                           ;main_01.c: 169:             }
  2067     0116  2A4D               	goto	l246
  2068     0117                     l1337:
  2069     0117  306A               	movlw	low (STR_8| (0+32768))
  2070     0118  00F2               	movwf	strcmp@l
  2071     0119  3084               	movlw	high (STR_8| (0+32768))
  2072     011A  00F3               	movwf	strcmp@l+1
  2073     011B  3034               	movlw	(low (main@str_RS232| 0))& (0+255)
  2074     011C  00F4               	movwf	strcmp@r
  2075     011D  3182  2292  3180   	fcall	_strcmp
  2076     0120  0872               	movf	?_strcmp,w
  2077     0121  0473               	iorwf	?_strcmp+1,w
  2078     0122  1D03               	btfss	3,2
  2079     0123  2925               	goto	u751
  2080     0124  2926               	goto	u750
  2081     0125                     u751:
  2082     0125  2931               	goto	l1341
  2083     0126                     u750:
  2084     0126                     l1339:
  2085                           
  2086                           ;main_01.c: 171:             {;main_01.c: 172:                 UART2_SendStringCRLF("Cin
      +                          terion");
  2087     0126  3041               	movlw	low (STR_9| (0+32768))
  2088     0127  00F3               	movwf	UART2_SendStringCRLF@str
  2089     0128  3084               	movlw	high (STR_9| (0+32768))
  2090     0129  00F4               	movwf	UART2_SendStringCRLF@str+1
  2091     012A  3183  232D  3180   	fcall	_UART2_SendStringCRLF
  2092                           
  2093                           ;main_01.c: 173:                 UART2_SendOK();
  2094     012D  3184  244B  3180   	fcall	_UART2_SendOK
  2095                           
  2096                           ;main_01.c: 174:             }
  2097     0130  2A4D               	goto	l246
  2098     0131                     l1341:
  2099     0131  3071               	movlw	low (STR_10| (0+32768))
  2100     0132  00F2               	movwf	strcmp@l
  2101     0133  3084               	movlw	high (STR_10| (0+32768))
  2102     0134  00F3               	movwf	strcmp@l+1
  2103     0135  3034               	movlw	(low (main@str_RS232| 0))& (0+255)
  2104     0136  00F4               	movwf	strcmp@r
  2105     0137  3182  2292  3180   	fcall	_strcmp
  2106     013A  0872               	movf	?_strcmp,w
  2107     013B  0473               	iorwf	?_strcmp+1,w
  2108     013C  1D03               	btfss	3,2
  2109     013D  293F               	goto	u761
  2110     013E  2940               	goto	u760
  2111     013F                     u761:
  2112     013F  294B               	goto	l1345
  2113     0140                     u760:
  2114     0140                     l1343:
  2115                           
  2116                           ;main_01.c: 176:             {;main_01.c: 177:                 UART2_SendStringCRLF("BGS
      +                          2-W");
  2117     0140  3078               	movlw	low (STR_11| (0+32768))
  2118     0141  00F3               	movwf	UART2_SendStringCRLF@str
  2119     0142  3084               	movlw	high (STR_11| (0+32768))
  2120     0143  00F4               	movwf	UART2_SendStringCRLF@str+1
  2121     0144  3183  232D  3180   	fcall	_UART2_SendStringCRLF
  2122                           
  2123                           ;main_01.c: 178:                 UART2_SendOK();
  2124     0147  3184  244B  3180   	fcall	_UART2_SendOK
  2125                           
  2126                           ;main_01.c: 179:             }
  2127     014A  2A4D               	goto	l246
  2128     014B                     l1345:
  2129     014B  30CC               	movlw	low (STR_12| (0+32768))
  2130     014C  00F2               	movwf	strcmp@l
  2131     014D  3083               	movlw	high (STR_12| (0+32768))
  2132     014E  00F3               	movwf	strcmp@l+1
  2133     014F  3034               	movlw	(low (main@str_RS232| 0))& (0+255)
  2134     0150  00F4               	movwf	strcmp@r
  2135     0151  3182  2292  3180   	fcall	_strcmp
  2136     0154  0872               	movf	?_strcmp,w
  2137     0155  0473               	iorwf	?_strcmp+1,w
  2138     0156  1D03               	btfss	3,2
  2139     0157  2959               	goto	u771
  2140     0158  295A               	goto	u770
  2141     0159                     u771:
  2142     0159  2965               	goto	l1349
  2143     015A                     u770:
  2144     015A                     l1347:
  2145                           
  2146                           ;main_01.c: 181:             {;main_01.c: 182:                 UART2_SendString("");
  2147     015A  3091               	movlw	low ((STR_25+63)| (0+32768))
  2148     015B  00F3               	movwf	UART2_SendString@str
  2149     015C  3082               	movlw	high ((STR_25+63)| (0+32768))
  2150     015D  00F4               	movwf	UART2_SendString@str+1
  2151     015E  3183  239E  3180   	fcall	_UART2_SendString
  2152                           
  2153                           ;main_01.c: 183:                 UART2_SendOK();
  2154     0161  3184  244B  3180   	fcall	_UART2_SendOK
  2155                           
  2156                           ;main_01.c: 184:             }
  2157     0164  2A4D               	goto	l246
  2158     0165                     l1349:
  2159     0165  3005               	movlw	low (STR_14| (0+32768))
  2160     0166  00F2               	movwf	strcmp@l
  2161     0167  3084               	movlw	high (STR_14| (0+32768))
  2162     0168  00F3               	movwf	strcmp@l+1
  2163     0169  3034               	movlw	(low (main@str_RS232| 0))& (0+255)
  2164     016A  00F4               	movwf	strcmp@r
  2165     016B  3182  2292  3180   	fcall	_strcmp
  2166     016E  0872               	movf	?_strcmp,w
  2167     016F  0473               	iorwf	?_strcmp+1,w
  2168     0170  1D03               	btfss	3,2
  2169     0171  2973               	goto	u781
  2170     0172  2974               	goto	u780
  2171     0173                     u781:
  2172     0173  297F               	goto	l1353
  2173     0174                     u780:
  2174     0174                     l1351:
  2175                           
  2176                           ;main_01.c: 186:             {;main_01.c: 187:                 UART2_SendStringCRLF("");
  2177     0174  3091               	movlw	low ((STR_25+63)| (0+32768))
  2178     0175  00F3               	movwf	UART2_SendStringCRLF@str
  2179     0176  3082               	movlw	high ((STR_25+63)| (0+32768))
  2180     0177  00F4               	movwf	UART2_SendStringCRLF@str+1
  2181     0178  3183  232D  3180   	fcall	_UART2_SendStringCRLF
  2182                           
  2183                           ;main_01.c: 188:                 UART2_SendOK();
  2184     017B  3184  244B  3180   	fcall	_UART2_SendOK
  2185                           
  2186                           ;main_01.c: 189:             }
  2187     017E  2A4D               	goto	l246
  2188     017F                     l1353:
  2189     017F  302D               	movlw	low (STR_16| (0+32768))
  2190     0180  00F2               	movwf	strcmp@l
  2191     0181  3084               	movlw	high (STR_16| (0+32768))
  2192     0182  00F3               	movwf	strcmp@l+1
  2193     0183  3034               	movlw	(low (main@str_RS232| 0))& (0+255)
  2194     0184  00F4               	movwf	strcmp@r
  2195     0185  3182  2292  3180   	fcall	_strcmp
  2196     0188  0872               	movf	?_strcmp,w
  2197     0189  0473               	iorwf	?_strcmp+1,w
  2198     018A  1D03               	btfss	3,2
  2199     018B  298D               	goto	u791
  2200     018C  298E               	goto	u790
  2201     018D                     u791:
  2202     018D  2999               	goto	l1357
  2203     018E                     u790:
  2204     018E                     l1355:
  2205                           
  2206                           ;main_01.c: 191:             {;main_01.c: 192:                 UART2_SendStringCRLF("");
  2207     018E  3091               	movlw	low ((STR_25+63)| (0+32768))
  2208     018F  00F3               	movwf	UART2_SendStringCRLF@str
  2209     0190  3082               	movlw	high ((STR_25+63)| (0+32768))
  2210     0191  00F4               	movwf	UART2_SendStringCRLF@str+1
  2211     0192  3183  232D  3180   	fcall	_UART2_SendStringCRLF
  2212                           
  2213                           ;main_01.c: 193:                 UART2_SendOK();
  2214     0195  3184  244B  3180   	fcall	_UART2_SendOK
  2215                           
  2216                           ;main_01.c: 194:             }
  2217     0198  2A4D               	goto	l246
  2218     0199                     l1357:
  2219     0199  3037               	movlw	low (STR_18| (0+32768))
  2220     019A  00F2               	movwf	strcmp@l
  2221     019B  3084               	movlw	high (STR_18| (0+32768))
  2222     019C  00F3               	movwf	strcmp@l+1
  2223     019D  3034               	movlw	(low (main@str_RS232| 0))& (0+255)
  2224     019E  00F4               	movwf	strcmp@r
  2225     019F  3182  2292  3180   	fcall	_strcmp
  2226     01A2  0872               	movf	?_strcmp,w
  2227     01A3  0473               	iorwf	?_strcmp+1,w
  2228     01A4  1D03               	btfss	3,2
  2229     01A5  29A7               	goto	u801
  2230     01A6  29A8               	goto	u800
  2231     01A7                     u801:
  2232     01A7  29B3               	goto	l1361
  2233     01A8                     u800:
  2234     01A8                     l1359:
  2235                           
  2236                           ;main_01.c: 196:             {;main_01.c: 197:                 UART2_SendStringCRLF("");
  2237     01A8  3091               	movlw	low ((STR_25+63)| (0+32768))
  2238     01A9  00F3               	movwf	UART2_SendStringCRLF@str
  2239     01AA  3082               	movlw	high ((STR_25+63)| (0+32768))
  2240     01AB  00F4               	movwf	UART2_SendStringCRLF@str+1
  2241     01AC  3183  232D  3180   	fcall	_UART2_SendStringCRLF
  2242                           
  2243                           ;main_01.c: 198:                 UART2_SendOK();
  2244     01AF  3184  244B  3180   	fcall	_UART2_SendOK
  2245                           
  2246                           ;main_01.c: 199:             }
  2247     01B2  2A4D               	goto	l246
  2248     01B3                     l1361:
  2249     01B3  3023               	movlw	low (STR_20| (0+32768))
  2250     01B4  00F2               	movwf	strcmp@l
  2251     01B5  3084               	movlw	high (STR_20| (0+32768))
  2252     01B6  00F3               	movwf	strcmp@l+1
  2253     01B7  3034               	movlw	(low (main@str_RS232| 0))& (0+255)
  2254     01B8  00F4               	movwf	strcmp@r
  2255     01B9  3182  2292  3180   	fcall	_strcmp
  2256     01BC  0872               	movf	?_strcmp,w
  2257     01BD  0473               	iorwf	?_strcmp+1,w
  2258     01BE  1D03               	btfss	3,2
  2259     01BF  29C1               	goto	u811
  2260     01C0  29C2               	goto	u810
  2261     01C1                     u811:
  2262     01C1  29CD               	goto	l1365
  2263     01C2                     u810:
  2264     01C2                     l1363:
  2265                           
  2266                           ;main_01.c: 201:             {;main_01.c: 202:                 UART2_SendStringCRLF("");
  2267     01C2  3091               	movlw	low ((STR_25+63)| (0+32768))
  2268     01C3  00F3               	movwf	UART2_SendStringCRLF@str
  2269     01C4  3082               	movlw	high ((STR_25+63)| (0+32768))
  2270     01C5  00F4               	movwf	UART2_SendStringCRLF@str+1
  2271     01C6  3183  232D  3180   	fcall	_UART2_SendStringCRLF
  2272                           
  2273                           ;main_01.c: 203:                 UART2_SendOK();
  2274     01C9  3184  244B  3180   	fcall	_UART2_SendOK
  2275                           
  2276                           ;main_01.c: 204:             }
  2277     01CC  2A4D               	goto	l246
  2278     01CD                     l1365:
  2279     01CD  300F               	movlw	low (STR_22| (0+32768))
  2280     01CE  00F2               	movwf	strcmp@l
  2281     01CF  3084               	movlw	high (STR_22| (0+32768))
  2282     01D0  00F3               	movwf	strcmp@l+1
  2283     01D1  3034               	movlw	(low (main@str_RS232| 0))& (0+255)
  2284     01D2  00F4               	movwf	strcmp@r
  2285     01D3  3182  2292  3180   	fcall	_strcmp
  2286     01D6  0872               	movf	?_strcmp,w
  2287     01D7  0473               	iorwf	?_strcmp+1,w
  2288     01D8  1D03               	btfss	3,2
  2289     01D9  29DB               	goto	u821
  2290     01DA  29DC               	goto	u820
  2291     01DB                     u821:
  2292     01DB  29E7               	goto	l1369
  2293     01DC                     u820:
  2294     01DC                     l1367:
  2295                           
  2296                           ;main_01.c: 206:             {;main_01.c: 207:                 UART2_SendStringCRLF("");
  2297     01DC  3091               	movlw	low ((STR_25+63)| (0+32768))
  2298     01DD  00F3               	movwf	UART2_SendStringCRLF@str
  2299     01DE  3082               	movlw	high ((STR_25+63)| (0+32768))
  2300     01DF  00F4               	movwf	UART2_SendStringCRLF@str+1
  2301     01E0  3183  232D  3180   	fcall	_UART2_SendStringCRLF
  2302                           
  2303                           ;main_01.c: 208:                 UART2_SendOK();
  2304     01E3  3184  244B  3180   	fcall	_UART2_SendOK
  2305                           
  2306                           ;main_01.c: 209:             }
  2307     01E6  2A4D               	goto	l246
  2308     01E7                     l1369:
  2309     01E7  3019               	movlw	low (STR_24| (0+32768))
  2310     01E8  00F2               	movwf	strcmp@l
  2311     01E9  3084               	movlw	high (STR_24| (0+32768))
  2312     01EA  00F3               	movwf	strcmp@l+1
  2313     01EB  3034               	movlw	(low (main@str_RS232| 0))& (0+255)
  2314     01EC  00F4               	movwf	strcmp@r
  2315     01ED  3182  2292  3180   	fcall	_strcmp
  2316     01F0  0872               	movf	?_strcmp,w
  2317     01F1  0473               	iorwf	?_strcmp+1,w
  2318     01F2  1D03               	btfss	3,2
  2319     01F3  29F5               	goto	u831
  2320     01F4  29F6               	goto	u830
  2321     01F5                     u831:
  2322     01F5  2A27               	goto	l1377
  2323     01F6                     u830:
  2324     01F6                     l1371:
  2325                           
  2326                           ;main_01.c: 211:             {;main_01.c: 212:                 if (message)
  2327     01F6  0140               	movlb	0	; select bank0
  2328     01F7  085C               	movf	_message,w
  2329     01F8  1903               	btfsc	3,2
  2330     01F9  29FB               	goto	u841
  2331     01FA  29FC               	goto	u840
  2332     01FB                     u841:
  2333     01FB  2A15               	goto	l1375
  2334     01FC                     u840:
  2335     01FC                     l1373:
  2336                           
  2337                           ;main_01.c: 213:                 {;main_01.c: 214:                     UART2_SendString(
      +                          "\r\n+CMGR:0,\"REC UNREAD\",\"+41793018256\",,\"23/01/01,22:10:00+08\"\r\n");
  2338     01FC  3052               	movlw	low (STR_25| (0+32768))
  2339     01FD  00F3               	movwf	UART2_SendString@str
  2340     01FE  3082               	movlw	high (STR_25| (0+32768))
  2341     01FF  00F4               	movwf	UART2_SendString@str+1
  2342     0200  3183  239E  3180   	fcall	_UART2_SendString
  2343                           
  2344                           ;main_01.c: 216:                     UART2_SendString("4139 ?");
  2345     0203  3063               	movlw	low (STR_26| (0+32768))
  2346     0204  00F3               	movwf	UART2_SendString@str
  2347     0205  3084               	movlw	high (STR_26| (0+32768))
  2348     0206  00F4               	movwf	UART2_SendString@str+1
  2349     0207  3183  239E  3180   	fcall	_UART2_SendString
  2350                           
  2351                           ;main_01.c: 218:                     UART2_SendStringCRLF("");
  2352     020A  3091               	movlw	low ((STR_25+63)| (0+32768))
  2353     020B  00F3               	movwf	UART2_SendStringCRLF@str
  2354     020C  3082               	movlw	high ((STR_25+63)| (0+32768))
  2355     020D  00F4               	movwf	UART2_SendStringCRLF@str+1
  2356     020E  3183  232D  3180   	fcall	_UART2_SendStringCRLF
  2357                           
  2358                           ;main_01.c: 219:                     UART2_SendOK();
  2359     0211  3184  244B  3180   	fcall	_UART2_SendOK
  2360                           
  2361                           ;main_01.c: 220:                 }
  2362     0214  2A4D               	goto	l246
  2363     0215                     l1375:
  2364                           
  2365                           ;main_01.c: 222:                 {;main_01.c: 223:                     UART2_SendStringC
      +                          RLF("");
  2366     0215  3091               	movlw	low ((STR_25+63)| (0+32768))
  2367     0216  00F3               	movwf	UART2_SendStringCRLF@str
  2368     0217  3082               	movlw	high ((STR_25+63)| (0+32768))
  2369     0218  00F4               	movwf	UART2_SendStringCRLF@str+1
  2370     0219  3183  232D  3180   	fcall	_UART2_SendStringCRLF
  2371                           
  2372                           ;main_01.c: 224:                     UART2_SendStringCRLF("+CMGR: 0,,0");
  2373     021C  30F9               	movlw	low (STR_29| (0+32768))
  2374     021D  00F3               	movwf	UART2_SendStringCRLF@str
  2375     021E  3083               	movlw	high (STR_29| (0+32768))
  2376     021F  00F4               	movwf	UART2_SendStringCRLF@str+1
  2377     0220  3183  232D  3180   	fcall	_UART2_SendStringCRLF
  2378                           
  2379                           ;main_01.c: 225:                     UART2_SendOK();
  2380     0223  3184  244B  3180   	fcall	_UART2_SendOK
  2381     0226  2A4D               	goto	l246
  2382     0227                     l1377:
  2383     0227  3087               	movlw	low (STR_30| (0+32768))
  2384     0228  00F2               	movwf	strcmp@l
  2385     0229  3083               	movlw	high (STR_30| (0+32768))
  2386     022A  00F3               	movwf	strcmp@l+1
  2387     022B  3034               	movlw	(low (main@str_RS232| 0))& (0+255)
  2388     022C  00F4               	movwf	strcmp@r
  2389     022D  3182  2292  3180   	fcall	_strcmp
  2390     0230  0872               	movf	?_strcmp,w
  2391     0231  0473               	iorwf	?_strcmp+1,w
  2392     0232  1D03               	btfss	3,2
  2393     0233  2A35               	goto	u851
  2394     0234  2A36               	goto	u850
  2395     0235                     u851:
  2396     0235  2A4D               	goto	l266
  2397     0236                     u850:
  2398     0236                     l1381:
  2399     0236  3184  249C  3180   	fcall	_UART2_DataIsReceived
  2400     0239  3A00               	xorlw	0
  2401     023A  1903               	skipnz
  2402     023B  2A3D               	goto	u861
  2403     023C  2A3E               	goto	u860
  2404     023D                     u861:
  2405     023D  2A36               	goto	l1381
  2406     023E                     u860:
  2407     023E                     l1383:
  2408                           
  2409                           ;main_01.c: 231:                 RS232_cmd(str_RS232);
  2410     023E  3034               	movlw	(low (main@str_RS232| 0))& (0+255)
  2411     023F  3183  234C  3180   	fcall	_RS232_cmd
  2412     0242                     l1385:
  2413                           
  2414                           ;main_01.c: 232:                 UART2_SendStringCRLF("*CF+CMGS: 73");
  2415     0242  30EC               	movlw	low (STR_31| (0+32768))
  2416     0243  00F3               	movwf	UART2_SendStringCRLF@str
  2417     0244  3083               	movlw	high (STR_31| (0+32768))
  2418     0245  00F4               	movwf	UART2_SendStringCRLF@str+1
  2419     0246  3183  232D  3180   	fcall	_UART2_SendStringCRLF
  2420     0249                     l1387:
  2421                           
  2422                           ;main_01.c: 233:                 UART2_SendOK();
  2423     0249  3184  244B  3180   	fcall	_UART2_SendOK
  2424                           
  2425                           ;main_01.c: 234:             }
  2426     024C  2A4D               	goto	l246
  2427     024D                     l266:
  2428     024D                     l246:
  2429                           
  2430                           ;main_01.c: 239:             LATBbits.LATB4 = 1;
  2431     024D  0140               	movlb	0	; select bank0
  2432     024E  1619               	bsf	25,4	;volatile
  2433     024F  2882               	goto	l1305
  2434     0250  3180  283F         	ljmp	start
  2435     0252                     __end_of_main:
  2436                           
  2437                           	psect	text1
  2438     0292                     __ptext1:	
  2439 ;; *************** function _strcmp *****************
  2440 ;; Defined at:
  2441 ;;		line 3 in file "C:\Program Files\Microchip\xc8\v2.40\pic\sources\c99\common\strcmp.c"
  2442 ;; Parameters:    Size  Location     Type
  2443 ;;  l               2    2[COMMON] PTR const unsigned char 
  2444 ;;		 -> STR_30(23), STR_24(10), STR_22(10), STR_20(10), 
  2445 ;;		 -> STR_18(10), STR_16(10), STR_14(10), STR_12(18), 
  2446 ;;		 -> STR_10(7), STR_8(7), STR_6(5), STR_4(5), 
  2447 ;;		 -> STR_2(3), 
  2448 ;;  r               1    4[COMMON] PTR const unsigned char 
  2449 ;;		 -> main@str_RS232(20), 
  2450 ;; Auto vars:     Size  Location     Type
  2451 ;;		None
  2452 ;; Return value:  Size  Location     Type
  2453 ;;                  2    2[COMMON] int 
  2454 ;; Registers used:
  2455 ;;		wreg, fsr0l, fsr0h, fsr1l, fsr1h, status,2, status,0, pclath
  2456 ;; Tracked objects:
  2457 ;;		On entry : 0/0
  2458 ;;		On exit  : 0/0
  2459 ;;		Unchanged: 0/0
  2460 ;; Data sizes:     COMMON   BANK0   BANK1   BANK2   BANK3   BANK4   BANK5   BANK6   BANK7   BANK8   BANK9  BANK10  BANK1
      +1  BANK12  BANK13  BANK14  BANK15  BANK16  BANK17  BANK18  BANK19  BANK20  BANK21  BANK22  BANK23  BANK24  BANK25
  2461 ;;      Params:         3       0       0       0       0       0       0       0       0       0       0       0       
      +0       0       0       0       0       0       0       0       0       0       0       0       0       0       0
  2462 ;;      Locals:         0       0       0       0       0       0       0       0       0       0       0       0       
      +0       0       0       0       0       0       0       0       0       0       0       0       0       0       0
  2463 ;;      Temps:          1       0       0       0       0       0       0       0       0       0       0       0       
      +0       0       0       0       0       0       0       0       0       0       0       0       0       0       0
  2464 ;;      Totals:         4       0       0       0       0       0       0       0       0       0       0       0       
      +0       0       0       0       0       0       0       0       0       0       0       0       0       0       0
  2465 ;;Total ram usage:        4 bytes
  2466 ;; Hardware stack levels used: 1
  2467 ;; Hardware stack levels required when called: 3
  2468 ;; This function calls:
  2469 ;;		Nothing
  2470 ;; This function is called by:
  2471 ;;		_main
  2472 ;; This function uses a non-reentrant model
  2473 ;;
  2474                           
  2475     0292                     _strcmp:	
  2476                           ;psect for function _strcmp
  2477                           
  2478     0292                     l1277:	
  2479                           ;incstack = 0
  2480                           ; Regs used in _strcmp: [wreg-fsr1h+status,2+status,0+pclath]
  2481                           
  2482     0292  2A9B               	goto	l1283
  2483     0293                     l1279:
  2484     0293  3001               	movlw	1
  2485     0294  07F2               	addwf	strcmp@l,f
  2486     0295  3000               	movlw	0
  2487     0296  3DF3               	addwfc	strcmp@l+1,f
  2488     0297                     l1281:
  2489     0297  3001               	movlw	1
  2490     0298  00F5               	movwf	??_strcmp
  2491     0299  0875               	movf	??_strcmp,w
  2492     029A  07F4               	addwf	strcmp@r,f
  2493     029B                     l1283:
  2494     029B  0874               	movf	strcmp@r,w
  2495     029C  0086               	movwf	6
  2496     029D  0187               	clrf	7
  2497     029E  0872               	movf	strcmp@l,w
  2498     029F  0084               	movwf	4
  2499     02A0  0873               	movf	strcmp@l+1,w
  2500     02A1  0085               	movwf	5
  2501     02A2  0800               	movf	0,w	;code access
  2502     02A3  0601               	xorwf	1,w
  2503     02A4  1D03               	skipz
  2504     02A5  2AA7               	goto	u601
  2505     02A6  2AA8               	goto	u600
  2506     02A7                     u601:
  2507     02A7  2AB1               	goto	l1287
  2508     02A8                     u600:
  2509     02A8                     l1285:
  2510     02A8  0872               	movf	strcmp@l,w
  2511     02A9  0084               	movwf	4
  2512     02AA  0873               	movf	strcmp@l+1,w
  2513     02AB  0085               	movwf	5
  2514     02AC  0012               	moviw fsr0++
  2515     02AD  1D03               	btfss	3,2
  2516     02AE  2AB0               	goto	u611
  2517     02AF  2AB1               	goto	u610
  2518     02B0                     u611:
  2519     02B0  2A93               	goto	l1279
  2520     02B1                     u610:
  2521     02B1                     l1287:
  2522     02B1  0872               	movf	strcmp@l,w
  2523     02B2  0084               	movwf	4
  2524     02B3  0873               	movf	strcmp@l+1,w
  2525     02B4  0085               	movwf	5
  2526     02B5  0800               	movf	0,w	;code access
  2527     02B6  00F5               	movwf	??_strcmp
  2528     02B7  0874               	movf	strcmp@r,w
  2529     02B8  0086               	movwf	6
  2530     02B9  0187               	clrf	7
  2531     02BA  0801               	movf	1,w
  2532     02BB  0275               	subwf	??_strcmp,w
  2533     02BC  00F2               	movwf	?_strcmp
  2534     02BD  01F3               	clrf	?_strcmp+1
  2535     02BE  1C03               	skipc
  2536     02BF  03F3               	decf	?_strcmp+1,f
  2537     02C0                     l831:
  2538     02C0  0008               	return
  2539     02C1                     __end_of_strcmp:
  2540                           
  2541                           	psect	text2
  2542     032D                     __ptext2:	
  2543 ;; *************** function _UART2_SendStringCRLF *****************
  2544 ;; Defined at:
  2545 ;;		line 152 in file "My_UART2_1.c"
  2546 ;; Parameters:    Size  Location     Type
  2547 ;;  str             2    3[COMMON] PTR unsigned char 
  2548 ;;		 -> STR_31(13), STR_29(12), STR_28(1), STR_27(1), 
  2549 ;;		 -> STR_23(1), STR_21(1), STR_19(1), STR_17(1), 
  2550 ;;		 -> STR_15(1), STR_11(7), STR_9(10), STR_5(1), 
  2551 ;;		 -> STR_3(1), 
  2552 ;; Auto vars:     Size  Location     Type
  2553 ;;		None
  2554 ;; Return value:  Size  Location     Type
  2555 ;;                  1    wreg      void 
  2556 ;; Registers used:
  2557 ;;		wreg, fsr0l, fsr0h, status,2, status,0, pclath, cstack
  2558 ;; Tracked objects:
  2559 ;;		On entry : 0/0
  2560 ;;		On exit  : 0/0
  2561 ;;		Unchanged: 0/0
  2562 ;; Data sizes:     COMMON   BANK0   BANK1   BANK2   BANK3   BANK4   BANK5   BANK6   BANK7   BANK8   BANK9  BANK10  BANK1
      +1  BANK12  BANK13  BANK14  BANK15  BANK16  BANK17  BANK18  BANK19  BANK20  BANK21  BANK22  BANK23  BANK24  BANK25
  2563 ;;      Params:         2       0       0       0       0       0       0       0       0       0       0       0       
      +0       0       0       0       0       0       0       0       0       0       0       0       0       0       0
  2564 ;;      Locals:         0       0       0       0       0       0       0       0       0       0       0       0       
      +0       0       0       0       0       0       0       0       0       0       0       0       0       0       0
  2565 ;;      Temps:          1       0       0       0       0       0       0       0       0       0       0       0       
      +0       0       0       0       0       0       0       0       0       0       0       0       0       0       0
  2566 ;;      Totals:         3       0       0       0       0       0       0       0       0       0       0       0       
      +0       0       0       0       0       0       0       0       0       0       0       0       0       0       0
  2567 ;;Total ram usage:        3 bytes
  2568 ;; Hardware stack levels used: 1
  2569 ;; Hardware stack levels required when called: 4
  2570 ;; This function calls:
  2571 ;;		_UART2_Write
  2572 ;; This function is called by:
  2573 ;;		_main
  2574 ;; This function uses a non-reentrant model
  2575 ;;
  2576                           
  2577     032D                     _UART2_SendStringCRLF:	
  2578                           ;psect for function _UART2_SendStringCRLF
  2579                           
  2580     032D                     l1197:	
  2581                           ;incstack = 0
  2582                           ; Regs used in _UART2_SendStringCRLF: [wreg-fsr0h+status,2+status,0+pclath+cstack]
  2583                           
  2584                           
  2585                           ;My_UART2_1.c: 152: void UART2_SendStringCRLF(char *str);My_UART2_1.c: 153: {;My_UART2_1
      +                          .c: 154:     while (*str != '\0')
  2586     032D  2B3A               	goto	l1203
  2587     032E                     l1199:
  2588                           
  2589                           ;My_UART2_1.c: 155:     {;My_UART2_1.c: 156:         UART2_Write(*str);
  2590     032E  0873               	movf	UART2_SendStringCRLF@str,w
  2591     032F  0084               	movwf	4
  2592     0330  0874               	movf	UART2_SendStringCRLF@str+1,w
  2593     0331  0085               	movwf	5
  2594     0332  0800               	movf	0,w	;code access
  2595     0333  3183  23DE  3183   	fcall	_UART2_Write
  2596     0336                     l1201:
  2597                           
  2598                           ;My_UART2_1.c: 157:         str++;
  2599     0336  3001               	movlw	1
  2600     0337  07F3               	addwf	UART2_SendStringCRLF@str,f
  2601     0338  3000               	movlw	0
  2602     0339  3DF4               	addwfc	UART2_SendStringCRLF@str+1,f
  2603     033A                     l1203:
  2604                           
  2605                           ;My_UART2_1.c: 154:     while (*str != '\0')
  2606     033A  0873               	movf	UART2_SendStringCRLF@str,w
  2607     033B  0084               	movwf	4
  2608     033C  0874               	movf	UART2_SendStringCRLF@str+1,w
  2609     033D  0085               	movwf	5
  2610     033E  0012               	moviw fsr0++
  2611     033F  1D03               	btfss	3,2
  2612     0340  2B42               	goto	u561
  2613     0341  2B43               	goto	u560
  2614     0342                     u561:
  2615     0342  2B2E               	goto	l1199
  2616     0343                     u560:
  2617     0343                     l1205:
  2618                           
  2619                           ;My_UART2_1.c: 159:     UART2_Write(0x0D);
  2620     0343  300D               	movlw	13
  2621     0344  3183  23DE  3183   	fcall	_UART2_Write
  2622                           
  2623                           ;My_UART2_1.c: 160:     UART2_Write(0x0A);
  2624     0347  300A               	movlw	10
  2625     0348  3183  23DE  3183   	fcall	_UART2_Write
  2626     034B                     l112:
  2627     034B  0008               	return
  2628     034C                     __end_of_UART2_SendStringCRLF:
  2629                           
  2630                           	psect	text3
  2631     044B                     __ptext3:	
  2632 ;; *************** function _UART2_SendOK *****************
  2633 ;; Defined at:
  2634 ;;		line 185 in file "My_UART2_1.c"
  2635 ;; Parameters:    Size  Location     Type
  2636 ;;		None
  2637 ;; Auto vars:     Size  Location     Type
  2638 ;;		None
  2639 ;; Return value:  Size  Location     Type
  2640 ;;                  1    wreg      void 
  2641 ;; Registers used:
  2642 ;;		wreg, fsr0l, fsr0h, status,2, status,0, pclath, cstack
  2643 ;; Tracked objects:
  2644 ;;		On entry : 0/0
  2645 ;;		On exit  : 0/0
  2646 ;;		Unchanged: 0/0
  2647 ;; Data sizes:     COMMON   BANK0   BANK1   BANK2   BANK3   BANK4   BANK5   BANK6   BANK7   BANK8   BANK9  BANK10  BANK1
      +1  BANK12  BANK13  BANK14  BANK15  BANK16  BANK17  BANK18  BANK19  BANK20  BANK21  BANK22  BANK23  BANK24  BANK25
  2648 ;;      Params:         0       0       0       0       0       0       0       0       0       0       0       0       
      +0       0       0       0       0       0       0       0       0       0       0       0       0       0       0
  2649 ;;      Locals:         0       0       0       0       0       0       0       0       0       0       0       0       
      +0       0       0       0       0       0       0       0       0       0       0       0       0       0       0
  2650 ;;      Temps:          0       0       0       0       0       0       0       0       0       0       0       0       
      +0       0       0       0       0       0       0       0       0       0       0       0       0       0       0
  2651 ;;      Totals:         0       0       0       0       0       0       0       0       0       0       0       0       
      +0       0       0       0       0       0       0       0       0       0       0       0       0       0       0
  2652 ;;Total ram usage:        0 bytes
  2653 ;; Hardware stack levels used: 1
  2654 ;; Hardware stack levels required when called: 5
  2655 ;; This function calls:
  2656 ;;		_UART2_SendString
  2657 ;; This function is called by:
  2658 ;;		_main
  2659 ;; This function uses a non-reentrant model
  2660 ;;
  2661                           
  2662     044B                     _UART2_SendOK:	
  2663                           ;psect for function _UART2_SendOK
  2664                           
  2665     044B                     l1207:	
  2666                           ;incstack = 0
  2667                           ; Regs used in _UART2_SendOK: [wreg-fsr0h+status,2+status,0+pclath+cstack]
  2668                           
  2669                           
  2670                           ;My_UART2_1.c: 187:     UART2_SendString("\r\nOK\r\n");
  2671     044B  307F               	movlw	low (STR_1| (0+32768))
  2672     044C  00F3               	movwf	UART2_SendString@str
  2673     044D  3084               	movlw	high (STR_1| (0+32768))
  2674     044E  00F4               	movwf	UART2_SendString@str+1
  2675     044F  3183  239E  3184   	fcall	_UART2_SendString
  2676     0452                     l121:
  2677     0452  0008               	return
  2678     0453                     __end_of_UART2_SendOK:
  2679                           
  2680                           	psect	text4
  2681     039E                     __ptext4:	
  2682 ;; *************** function _UART2_SendString *****************
  2683 ;; Defined at:
  2684 ;;		line 169 in file "My_UART2_1.c"
  2685 ;; Parameters:    Size  Location     Type
  2686 ;;  str             2    3[COMMON] PTR unsigned char 
  2687 ;;		 -> STR_26(7), STR_25(64), STR_13(1), STR_7(5), 
  2688 ;;		 -> STR_1(7), 
  2689 ;; Auto vars:     Size  Location     Type
  2690 ;;		None
  2691 ;; Return value:  Size  Location     Type
  2692 ;;                  1    wreg      void 
  2693 ;; Registers used:
  2694 ;;		wreg, fsr0l, fsr0h, status,2, status,0, pclath, cstack
  2695 ;; Tracked objects:
  2696 ;;		On entry : 0/0
  2697 ;;		On exit  : 0/0
  2698 ;;		Unchanged: 0/0
  2699 ;; Data sizes:     COMMON   BANK0   BANK1   BANK2   BANK3   BANK4   BANK5   BANK6   BANK7   BANK8   BANK9  BANK10  BANK1
      +1  BANK12  BANK13  BANK14  BANK15  BANK16  BANK17  BANK18  BANK19  BANK20  BANK21  BANK22  BANK23  BANK24  BANK25
  2700 ;;      Params:         2       0       0       0       0       0       0       0       0       0       0       0       
      +0       0       0       0       0       0       0       0       0       0       0       0       0       0       0
  2701 ;;      Locals:         0       0       0       0       0       0       0       0       0       0       0       0       
      +0       0       0       0       0       0       0       0       0       0       0       0       0       0       0
  2702 ;;      Temps:          1       0       0       0       0       0       0       0       0       0       0       0       
      +0       0       0       0       0       0       0       0       0       0       0       0       0       0       0
  2703 ;;      Totals:         3       0       0       0       0       0       0       0       0       0       0       0       
      +0       0       0       0       0       0       0       0       0       0       0       0       0       0       0
  2704 ;;Total ram usage:        3 bytes
  2705 ;; Hardware stack levels used: 1
  2706 ;; Hardware stack levels required when called: 4
  2707 ;; This function calls:
  2708 ;;		_UART2_Write
  2709 ;; This function is called by:
  2710 ;;		_UART2_SendOK
  2711 ;;		_main
  2712 ;; This function uses a non-reentrant model
  2713 ;;
  2714                           
  2715     039E                     _UART2_SendString:	
  2716                           ;psect for function _UART2_SendString
  2717                           
  2718     039E                     l1155:	
  2719                           ;incstack = 0
  2720                           ; Regs used in _UART2_SendString: [wreg-fsr0h+status,2+status,0+pclath+cstack]
  2721                           
  2722                           
  2723                           ;My_UART2_1.c: 169: void UART2_SendString(char *str);My_UART2_1.c: 170: {;My_UART2_1.c: 
      +                          171:     while (*str != '\0')
  2724     039E  2BAB               	goto	l1161
  2725     039F                     l1157:
  2726                           
  2727                           ;My_UART2_1.c: 172:     {;My_UART2_1.c: 173:         UART2_Write(*str);
  2728     039F  0873               	movf	UART2_SendString@str,w
  2729     03A0  0084               	movwf	4
  2730     03A1  0874               	movf	UART2_SendString@str+1,w
  2731     03A2  0085               	movwf	5
  2732     03A3  0800               	movf	0,w	;code access
  2733     03A4  3183  23DE  3183   	fcall	_UART2_Write
  2734     03A7                     l1159:
  2735                           
  2736                           ;My_UART2_1.c: 174:         str++;
  2737     03A7  3001               	movlw	1
  2738     03A8  07F3               	addwf	UART2_SendString@str,f
  2739     03A9  3000               	movlw	0
  2740     03AA  3DF4               	addwfc	UART2_SendString@str+1,f
  2741     03AB                     l1161:
  2742                           
  2743                           ;My_UART2_1.c: 171:     while (*str != '\0')
  2744     03AB  0873               	movf	UART2_SendString@str,w
  2745     03AC  0084               	movwf	4
  2746     03AD  0874               	movf	UART2_SendString@str+1,w
  2747     03AE  0085               	movwf	5
  2748     03AF  0012               	moviw fsr0++
  2749     03B0  1D03               	btfss	3,2
  2750     03B1  2BB3               	goto	u541
  2751     03B2  2BB4               	goto	u540
  2752     03B3                     u541:
  2753     03B3  2B9F               	goto	l1157
  2754     03B4                     u540:
  2755     03B4                     l118:
  2756     03B4  0008               	return
  2757     03B5                     __end_of_UART2_SendString:
  2758                           
  2759                           	psect	text5
  2760     03DE                     __ptext5:	
  2761 ;; *************** function _UART2_Write *****************
  2762 ;; Defined at:
  2763 ;;		line 111 in file "My_UART2_1.c"
  2764 ;; Parameters:    Size  Location     Type
  2765 ;;  data            1    wreg     unsigned char 
  2766 ;; Auto vars:     Size  Location     Type
  2767 ;;  data            1    2[COMMON] unsigned char 
  2768 ;; Return value:  Size  Location     Type
  2769 ;;                  1    wreg      void 
  2770 ;; Registers used:
  2771 ;;		wreg
  2772 ;; Tracked objects:
  2773 ;;		On entry : 0/0
  2774 ;;		On exit  : 0/0
  2775 ;;		Unchanged: 0/0
  2776 ;; Data sizes:     COMMON   BANK0   BANK1   BANK2   BANK3   BANK4   BANK5   BANK6   BANK7   BANK8   BANK9  BANK10  BANK1
      +1  BANK12  BANK13  BANK14  BANK15  BANK16  BANK17  BANK18  BANK19  BANK20  BANK21  BANK22  BANK23  BANK24  BANK25
  2777 ;;      Params:         0       0       0       0       0       0       0       0       0       0       0       0       
      +0       0       0       0       0       0       0       0       0       0       0       0       0       0       0
  2778 ;;      Locals:         1       0       0       0       0       0       0       0       0       0       0       0       
      +0       0       0       0       0       0       0       0       0       0       0       0       0       0       0
  2779 ;;      Temps:          0       0       0       0       0       0       0       0       0       0       0       0       
      +0       0       0       0       0       0       0       0       0       0       0       0       0       0       0
  2780 ;;      Totals:         1       0       0       0       0       0       0       0       0       0       0       0       
      +0       0       0       0       0       0       0       0       0       0       0       0       0       0       0
  2781 ;;Total ram usage:        1 bytes
  2782 ;; Hardware stack levels used: 1
  2783 ;; Hardware stack levels required when called: 3
  2784 ;; This function calls:
  2785 ;;		Nothing
  2786 ;; This function is called by:
  2787 ;;		_UART2_SendStringCRLF
  2788 ;;		_UART2_SendString
  2789 ;; This function uses a non-reentrant model
  2790 ;;
  2791                           
  2792     03DE                     _UART2_Write:	
  2793                           ;psect for function _UART2_Write
  2794                           
  2795                           
  2796                           ;incstack = 0
  2797                           ; Regs used in _UART2_Write: [wreg]
  2798                           ;UART2_Write@data stored from wreg
  2799     03DE  00F2               	movwf	UART2_Write@data
  2800     03DF                     l1141:
  2801     03DF                     l94:	
  2802                           ;My_UART2_1.c: 111: void UART2_Write(uint8_t data);My_UART2_1.c: 112: {;My_UART2_1.c: 11
      +                          3:     while (PIR3bits.TX2IF == 0);
  2803                           
  2804     03DF  014E               	movlb	14	; select bank14
  2805     03E0  1F0F               	btfss	15,6	;volatile
  2806     03E1  2BE3               	goto	u521
  2807     03E2  2BE4               	goto	u520
  2808     03E3                     u521:
  2809     03E3  2BDF               	goto	l94
  2810     03E4                     u520:
  2811     03E4                     l1143:
  2812                           
  2813                           ;My_UART2_1.c: 114:     TX2REG = data;
  2814     03E4  0872               	movf	UART2_Write@data,w
  2815     03E5  0154               	movlb	20	; select bank20
  2816     03E6  009A               	movwf	26	;volatile
  2817     03E7                     l97:	
  2818                           ;My_UART2_1.c: 115:     while (TX2STAbits.TRMT == 0);
  2819                           
  2820     03E7  1C9E               	btfss	30,1	;volatile
  2821     03E8  2BEA               	goto	u531
  2822     03E9  2BEB               	goto	u530
  2823     03EA                     u531:
  2824     03EA  2BE7               	goto	l97
  2825     03EB                     u530:
  2826     03EB                     l100:
  2827     03EB  0008               	return
  2828     03EC                     __end_of_UART2_Write:
  2829                           
  2830                           	psect	text6
  2831     036B                     __ptext6:	
  2832 ;; *************** function _UART2_Init *****************
  2833 ;; Defined at:
  2834 ;;		line 19 in file "My_UART2_1.c"
  2835 ;; Parameters:    Size  Location     Type
  2836 ;;		None
  2837 ;; Auto vars:     Size  Location     Type
  2838 ;;		None
  2839 ;; Return value:  Size  Location     Type
  2840 ;;                  1    wreg      void 
  2841 ;; Registers used:
  2842 ;;		status,2, status,0, pclath, cstack
  2843 ;; Tracked objects:
  2844 ;;		On entry : 0/0
  2845 ;;		On exit  : 0/0
  2846 ;;		Unchanged: 0/0
  2847 ;; Data sizes:     COMMON   BANK0   BANK1   BANK2   BANK3   BANK4   BANK5   BANK6   BANK7   BANK8   BANK9  BANK10  BANK1
      +1  BANK12  BANK13  BANK14  BANK15  BANK16  BANK17  BANK18  BANK19  BANK20  BANK21  BANK22  BANK23  BANK24  BANK25
  2848 ;;      Params:         0       0       0       0       0       0       0       0       0       0       0       0       
      +0       0       0       0       0       0       0       0       0       0       0       0       0       0       0
  2849 ;;      Locals:         0       0       0       0       0       0       0       0       0       0       0       0       
      +0       0       0       0       0       0       0       0       0       0       0       0       0       0       0
  2850 ;;      Temps:          0       0       0       0       0       0       0       0       0       0       0       0       
      +0       0       0       0       0       0       0       0       0       0       0       0       0       0       0
  2851 ;;      Totals:         0       0       0       0       0       0       0       0       0       0       0       0       
      +0       0       0       0       0       0       0       0       0       0       0       0       0       0       0
  2852 ;;Total ram usage:        0 bytes
  2853 ;; Hardware stack levels used: 1
  2854 ;; Hardware stack levels required when called: 4
  2855 ;; This function calls:
  2856 ;;		_RS232_EmptyData
  2857 ;; This function is called by:
  2858 ;;		_main
  2859 ;; This function uses a non-reentrant model
  2860 ;;
  2861                           
  2862     036B                     _UART2_Init:	
  2863                           ;psect for function _UART2_Init
  2864                           
  2865     036B                     l1187:	
  2866                           ;incstack = 0
  2867                           ; Regs used in _UART2_Init: [status,2+status,0+pclath+cstack]
  2868                           
  2869                           
  2870                           ;My_UART2_1.c: 22:     PIE3bits.RC2IE = 0;
  2871     036B  014E               	movlb	14	; select bank14
  2872     036C  1399               	bcf	25,7	;volatile
  2873                           
  2874                           ;My_UART2_1.c: 27:     TX2STAbits.TX9 = 0;
  2875     036D  0154               	movlb	20	; select bank20
  2876     036E  131E               	bcf	30,6	;volatile
  2877                           
  2878                           ;My_UART2_1.c: 32:     TX2STAbits.TXEN = 1;
  2879     036F  169E               	bsf	30,5	;volatile
  2880                           
  2881                           ;My_UART2_1.c: 37:     TX2STAbits.SYNC = 0;
  2882     0370  121E               	bcf	30,4	;volatile
  2883                           
  2884                           ;My_UART2_1.c: 46:     TX2STAbits.SENDB = 0;
  2885     0371  119E               	bcf	30,3	;volatile
  2886                           
  2887                           ;My_UART2_1.c: 54:     TX2STAbits.BRGH = 1;
  2888     0372  151E               	bsf	30,2	;volatile
  2889                           
  2890                           ;My_UART2_1.c: 63:     TX2STAbits.TX9D = 0;
  2891     0373  101E               	bcf	30,0	;volatile
  2892                           
  2893                           ;My_UART2_1.c: 66:     TRISBbits.TRISB3 = 1;
  2894     0374  0140               	movlb	0	; select bank0
  2895     0375  1593               	bsf	19,3	;volatile
  2896                           
  2897                           ;My_UART2_1.c: 67:     TRISBbits.TRISB2 = 0;
  2898     0376  1113               	bcf	19,2	;volatile
  2899                           
  2900                           ;My_UART2_1.c: 73:     RC2STAbits.SPEN = 1;
  2901     0377  0154               	movlb	20	; select bank20
  2902     0378  179D               	bsf	29,7	;volatile
  2903                           
  2904                           ;My_UART2_1.c: 78:     RC2STAbits.RX9 = 0;
  2905     0379  131D               	bcf	29,6	;volatile
  2906                           
  2907                           ;My_UART2_1.c: 83:     RC2STAbits.CREN = 1;
  2908     037A  161D               	bsf	29,4	;volatile
  2909                           
  2910                           ;My_UART2_1.c: 86:     SP2BRG = 16;
  2911     037B  3000               	movlw	0
  2912     037C  009C               	movwf	28	;volatile
  2913     037D  3010               	movlw	16
  2914     037E  009B               	movwf	27	;volatile
  2915                           
  2916                           ;My_UART2_1.c: 91:     BAUD2CONbits.BRG16 = 1;
  2917     037F  159F               	bsf	31,3	;volatile
  2918                           
  2919                           ;My_UART2_1.c: 96:     BAUD2CONbits.SCKP = 0;
  2920     0380  121F               	bcf	31,4	;volatile
  2921     0381                     l1189:
  2922                           
  2923                           ;My_UART2_1.c: 98:     RS232_EmptyData();
  2924     0381  3184  2453  3183   	fcall	_RS232_EmptyData
  2925     0384                     l1191:
  2926                           
  2927                           ;My_UART2_1.c: 101:     PIE3bits.RC2IE = 1;
  2928     0384  014E               	movlb	14	; select bank14
  2929     0385  1799               	bsf	25,7	;volatile
  2930     0386                     l91:
  2931     0386  0008               	return
  2932     0387                     __end_of_UART2_Init:
  2933                           
  2934                           	psect	text7
  2935     0453                     __ptext7:	
  2936 ;; *************** function _RS232_EmptyData *****************
  2937 ;; Defined at:
  2938 ;;		line 240 in file "My_UART2_1.c"
  2939 ;; Parameters:    Size  Location     Type
  2940 ;;		None
  2941 ;; Auto vars:     Size  Location     Type
  2942 ;;		None
  2943 ;; Return value:  Size  Location     Type
  2944 ;;                  1    wreg      void 
  2945 ;; Registers used:
  2946 ;;		status,2
  2947 ;; Tracked objects:
  2948 ;;		On entry : 0/0
  2949 ;;		On exit  : 0/0
  2950 ;;		Unchanged: 0/0
  2951 ;; Data sizes:     COMMON   BANK0   BANK1   BANK2   BANK3   BANK4   BANK5   BANK6   BANK7   BANK8   BANK9  BANK10  BANK1
      +1  BANK12  BANK13  BANK14  BANK15  BANK16  BANK17  BANK18  BANK19  BANK20  BANK21  BANK22  BANK23  BANK24  BANK25
  2952 ;;      Params:         0       0       0       0       0       0       0       0       0       0       0       0       
      +0       0       0       0       0       0       0       0       0       0       0       0       0       0       0
  2953 ;;      Locals:         0       0       0       0       0       0       0       0       0       0       0       0       
      +0       0       0       0       0       0       0       0       0       0       0       0       0       0       0
  2954 ;;      Temps:          0       0       0       0       0       0       0       0       0       0       0       0       
      +0       0       0       0       0       0       0       0       0       0       0       0       0       0       0
  2955 ;;      Totals:         0       0       0       0       0       0       0       0       0       0       0       0       
      +0       0       0       0       0       0       0       0       0       0       0       0       0       0       0
  2956 ;;Total ram usage:        0 bytes
  2957 ;; Hardware stack levels used: 1
  2958 ;; Hardware stack levels required when called: 3
  2959 ;; This function calls:
  2960 ;;		Nothing
  2961 ;; This function is called by:
  2962 ;;		_UART2_Init
  2963 ;; This function uses a non-reentrant model
  2964 ;;
  2965                           
  2966     0453                     _RS232_EmptyData:	
  2967                           ;psect for function _RS232_EmptyData
  2968                           
  2969     0453                     l1145:	
  2970                           ;incstack = 0
  2971                           ; Regs used in _RS232_EmptyData: [status,2]
  2972                           
  2973                           
  2974                           ;My_UART2_1.c: 242:     PIE3bits.RC2IE = 0;
  2975     0453  014E               	movlb	14	; select bank14
  2976     0454  1399               	bcf	25,7	;volatile
  2977     0455                     l1147:
  2978                           
  2979                           ;My_UART2_1.c: 244:     read_RS232[0] = '\0';
  2980     0455  0141               	movlb	1	; select bank1
  2981     0456  01A0               	clrf	_read_RS232^(0+128)
  2982                           
  2983                           ;My_UART2_1.c: 245:     cmdRS323Receive = 0;
  2984     0457  01F8               	clrf	_cmdRS323Receive
  2985     0458                     l1149:
  2986                           
  2987                           ;My_UART2_1.c: 247:     PIE3bits.RC2IE = 1;
  2988     0458  014E               	movlb	14	; select bank14
  2989     0459  1799               	bsf	25,7	;volatile
  2990     045A                     l133:
  2991     045A  0008               	return
  2992     045B                     __end_of_RS232_EmptyData:
  2993                           
  2994                           	psect	text8
  2995     049C                     __ptext8:	
  2996 ;; *************** function _UART2_DataIsReceived *****************
  2997 ;; Defined at:
  2998 ;;		line 138 in file "My_UART2_1.c"
  2999 ;; Parameters:    Size  Location     Type
  3000 ;;		None
  3001 ;; Auto vars:     Size  Location     Type
  3002 ;;		None
  3003 ;; Return value:  Size  Location     Type
  3004 ;;                  1    wreg      _Bool 
  3005 ;; Registers used:
  3006 ;;		wreg
  3007 ;; Tracked objects:
  3008 ;;		On entry : 0/0
  3009 ;;		On exit  : 0/0
  3010 ;;		Unchanged: 0/0
  3011 ;; Data sizes:     COMMON   BANK0   BANK1   BANK2   BANK3   BANK4   BANK5   BANK6   BANK7   BANK8   BANK9  BANK10  BANK1
      +1  BANK12  BANK13  BANK14  BANK15  BANK16  BANK17  BANK18  BANK19  BANK20  BANK21  BANK22  BANK23  BANK24  BANK25
  3012 ;;      Params:         0       0       0       0       0       0       0       0       0       0       0       0       
      +0       0       0       0       0       0       0       0       0       0       0       0       0       0       0
  3013 ;;      Locals:         0       0       0       0       0       0       0       0       0       0       0       0       
      +0       0       0       0       0       0       0       0       0       0       0       0       0       0       0
  3014 ;;      Temps:          0       0       0       0       0       0       0       0       0       0       0       0       
      +0       0       0       0       0       0       0       0       0       0       0       0       0       0       0
  3015 ;;      Totals:         0       0       0       0       0       0       0       0       0       0       0       0       
      +0       0       0       0       0       0       0       0       0       0       0       0       0       0       0
  3016 ;;Total ram usage:        0 bytes
  3017 ;; Hardware stack levels used: 1
  3018 ;; Hardware stack levels required when called: 3
  3019 ;; This function calls:
  3020 ;;		Nothing
  3021 ;; This function is called by:
  3022 ;;		_main
  3023 ;; This function uses a non-reentrant model
  3024 ;;
  3025                           
  3026     049C                     _UART2_DataIsReceived:	
  3027                           ;psect for function _UART2_DataIsReceived
  3028                           
  3029     049C                     l1193:	
  3030                           ;incstack = 0
  3031                           ; Regs used in _UART2_DataIsReceived: [wreg]
  3032                           
  3033                           
  3034                           ;My_UART2_1.c: 141:     return cmdRS323Receive;
  3035     049C  0878               	movf	_cmdRS323Receive,w
  3036     049D                     l106:
  3037     049D  0008               	return
  3038     049E                     __end_of_UART2_DataIsReceived:
  3039                           
  3040                           	psect	text9
  3041     03B5                     __ptext9:	
  3042 ;; *************** function _UART1_Init *****************
  3043 ;; Defined at:
  3044 ;;		line 19 in file "My_UART1.c"
  3045 ;; Parameters:    Size  Location     Type
  3046 ;;		None
  3047 ;; Auto vars:     Size  Location     Type
  3048 ;;		None
  3049 ;; Return value:  Size  Location     Type
  3050 ;;                  1    wreg      void 
  3051 ;; Registers used:
  3052 ;;		None
  3053 ;; Tracked objects:
  3054 ;;		On entry : 0/0
  3055 ;;		On exit  : 0/0
  3056 ;;		Unchanged: 0/0
  3057 ;; Data sizes:     COMMON   BANK0   BANK1   BANK2   BANK3   BANK4   BANK5   BANK6   BANK7   BANK8   BANK9  BANK10  BANK1
      +1  BANK12  BANK13  BANK14  BANK15  BANK16  BANK17  BANK18  BANK19  BANK20  BANK21  BANK22  BANK23  BANK24  BANK25
  3058 ;;      Params:         0       0       0       0       0       0       0       0       0       0       0       0       
      +0       0       0       0       0       0       0       0       0       0       0       0       0       0       0
  3059 ;;      Locals:         0       0       0       0       0       0       0       0       0       0       0       0       
      +0       0       0       0       0       0       0       0       0       0       0       0       0       0       0
  3060 ;;      Temps:          0       0       0       0       0       0       0       0       0       0       0       0       
      +0       0       0       0       0       0       0       0       0       0       0       0       0       0       0
  3061 ;;      Totals:         0       0       0       0       0       0       0       0       0       0       0       0       
      +0       0       0       0       0       0       0       0       0       0       0       0       0       0       0
  3062 ;;Total ram usage:        0 bytes
  3063 ;; Hardware stack levels used: 1
  3064 ;; Hardware stack levels required when called: 3
  3065 ;; This function calls:
  3066 ;;		Nothing
  3067 ;; This function is called by:
  3068 ;;		_main
  3069 ;; This function uses a non-reentrant model
  3070 ;;
  3071                           
  3072     03B5                     _UART1_Init:	
  3073                           ;psect for function _UART1_Init
  3074                           
  3075     03B5                     l1163:	
  3076                           ;incstack = 0
  3077                           ; Regs used in _UART1_Init: []
  3078                           
  3079                           
  3080                           ;My_UART1.c: 25:     TX1STAbits.TX9 = 0;
  3081     03B5  0142               	movlb	2	; select bank2
  3082     03B6  131E               	bcf	30,6	;volatile
  3083                           
  3084                           ;My_UART1.c: 30:     TX1STAbits.TXEN = 1;
  3085     03B7  169E               	bsf	30,5	;volatile
  3086                           
  3087                           ;My_UART1.c: 35:     TX1STAbits.SYNC = 0;
  3088     03B8  121E               	bcf	30,4	;volatile
  3089                           
  3090                           ;My_UART1.c: 44:     TX1STAbits.SENDB = 0;
  3091     03B9  119E               	bcf	30,3	;volatile
  3092                           
  3093                           ;My_UART1.c: 52:     TX1STAbits.BRGH = 1;
  3094     03BA  151E               	bsf	30,2	;volatile
  3095                           
  3096                           ;My_UART1.c: 61:     TX1STAbits.TX9D = 0;
  3097     03BB  101E               	bcf	30,0	;volatile
  3098                           
  3099                           ;My_UART1.c: 64:     TRISCbits.TRISC7 = 1;
  3100     03BC  0140               	movlb	0	; select bank0
  3101     03BD  1794               	bsf	20,7	;volatile
  3102                           
  3103                           ;My_UART1.c: 65:     TRISCbits.TRISC6 = 0;
  3104     03BE  1314               	bcf	20,6	;volatile
  3105                           
  3106                           ;My_UART1.c: 71:     RC1STAbits.SPEN = 1;
  3107     03BF  0142               	movlb	2	; select bank2
  3108     03C0  179D               	bsf	29,7	;volatile
  3109                           
  3110                           ;My_UART1.c: 76:     RC1STAbits.RX9 = 0;
  3111     03C1  131D               	bcf	29,6	;volatile
  3112                           
  3113                           ;My_UART1.c: 81:     RC1STAbits.CREN = 1;
  3114     03C2  161D               	bsf	29,4	;volatile
  3115                           
  3116                           ;My_UART1.c: 84:     SP1BRG = 16;
  3117     03C3  3000               	movlw	0
  3118     03C4  009C               	movwf	28	;volatile
  3119     03C5  3010               	movlw	16
  3120     03C6  009B               	movwf	27	;volatile
  3121                           
  3122                           ;My_UART1.c: 89:     BAUD1CONbits.BRG16 = 1;
  3123     03C7  159F               	bsf	31,3	;volatile
  3124                           
  3125                           ;My_UART1.c: 94:     BAUD1CONbits.SCKP = 0;
  3126     03C8  121F               	bcf	31,4	;volatile
  3127                           
  3128                           ;My_UART1.c: 97:     PIE3bits.RC1IE = 1;
  3129     03C9  014E               	movlb	14	; select bank14
  3130     03CA  1699               	bsf	25,5	;volatile
  3131     03CB                     l25:
  3132     03CB  0008               	return
  3133     03CC                     __end_of_UART1_Init:
  3134                           
  3135                           	psect	text10
  3136     049E                     __ptext10:	
  3137 ;; *************** function _UART1_DataIsReceived *****************
  3138 ;; Defined at:
  3139 ;;		line 135 in file "My_UART1.c"
  3140 ;; Parameters:    Size  Location     Type
  3141 ;;		None
  3142 ;; Auto vars:     Size  Location     Type
  3143 ;;		None
  3144 ;; Return value:  Size  Location     Type
  3145 ;;                  1    wreg      _Bool 
  3146 ;; Registers used:
  3147 ;;		wreg
  3148 ;; Tracked objects:
  3149 ;;		On entry : 0/0
  3150 ;;		On exit  : 0/0
  3151 ;;		Unchanged: 0/0
  3152 ;; Data sizes:     COMMON   BANK0   BANK1   BANK2   BANK3   BANK4   BANK5   BANK6   BANK7   BANK8   BANK9  BANK10  BANK1
      +1  BANK12  BANK13  BANK14  BANK15  BANK16  BANK17  BANK18  BANK19  BANK20  BANK21  BANK22  BANK23  BANK24  BANK25
  3153 ;;      Params:         0       0       0       0       0       0       0       0       0       0       0       0       
      +0       0       0       0       0       0       0       0       0       0       0       0       0       0       0
  3154 ;;      Locals:         0       0       0       0       0       0       0       0       0       0       0       0       
      +0       0       0       0       0       0       0       0       0       0       0       0       0       0       0
  3155 ;;      Temps:          0       0       0       0       0       0       0       0       0       0       0       0       
      +0       0       0       0       0       0       0       0       0       0       0       0       0       0       0
  3156 ;;      Totals:         0       0       0       0       0       0       0       0       0       0       0       0       
      +0       0       0       0       0       0       0       0       0       0       0       0       0       0       0
  3157 ;;Total ram usage:        0 bytes
  3158 ;; Hardware stack levels used: 1
  3159 ;; Hardware stack levels required when called: 3
  3160 ;; This function calls:
  3161 ;;		Nothing
  3162 ;; This function is called by:
  3163 ;;		_main
  3164 ;; This function uses a non-reentrant model
  3165 ;;
  3166                           
  3167     049E                     _UART1_DataIsReceived:	
  3168                           ;psect for function _UART1_DataIsReceived
  3169                           
  3170     049E                     l1165:	
  3171                           ;incstack = 0
  3172                           ; Regs used in _UART1_DataIsReceived: [wreg]
  3173                           
  3174                           
  3175                           ;My_UART1.c: 138:     return cmdModemReceive;
  3176     049E  087A               	movf	_cmdModemReceive,w
  3177     049F                     l40:
  3178     049F  0008               	return
  3179     04A0                     __end_of_UART1_DataIsReceived:
  3180                           
  3181                           	psect	text11
  3182     034C                     __ptext11:	
  3183 ;; *************** function _RS232_cmd *****************
  3184 ;; Defined at:
  3185 ;;		line 257 in file "My_UART2_1.c"
  3186 ;; Parameters:    Size  Location     Type
  3187 ;;  str             1    wreg     PTR unsigned char 
  3188 ;;		 -> main@str_RS232(20), 
  3189 ;; Auto vars:     Size  Location     Type
  3190 ;;  str             1    3[COMMON] PTR unsigned char 
  3191 ;;		 -> main@str_RS232(20), 
  3192 ;;  position        1    4[COMMON] unsigned char 
  3193 ;; Return value:  Size  Location     Type
  3194 ;;                  1    wreg      void 
  3195 ;; Registers used:
  3196 ;;		wreg, fsr0l, fsr0h, fsr1l, fsr1h, status,2, status,0
  3197 ;; Tracked objects:
  3198 ;;		On entry : 0/0
  3199 ;;		On exit  : 0/0
  3200 ;;		Unchanged: 0/0
  3201 ;; Data sizes:     COMMON   BANK0   BANK1   BANK2   BANK3   BANK4   BANK5   BANK6   BANK7   BANK8   BANK9  BANK10  BANK1
      +1  BANK12  BANK13  BANK14  BANK15  BANK16  BANK17  BANK18  BANK19  BANK20  BANK21  BANK22  BANK23  BANK24  BANK25
  3202 ;;      Params:         0       0       0       0       0       0       0       0       0       0       0       0       
      +0       0       0       0       0       0       0       0       0       0       0       0       0       0       0
  3203 ;;      Locals:         2       0       0       0       0       0       0       0       0       0       0       0       
      +0       0       0       0       0       0       0       0       0       0       0       0       0       0       0
  3204 ;;      Temps:          1       0       0       0       0       0       0       0       0       0       0       0       
      +0       0       0       0       0       0       0       0       0       0       0       0       0       0       0
  3205 ;;      Totals:         3       0       0       0       0       0       0       0       0       0       0       0       
      +0       0       0       0       0       0       0       0       0       0       0       0       0       0       0
  3206 ;;Total ram usage:        3 bytes
  3207 ;; Hardware stack levels used: 1
  3208 ;; Hardware stack levels required when called: 3
  3209 ;; This function calls:
  3210 ;;		Nothing
  3211 ;; This function is called by:
  3212 ;;		_main
  3213 ;; This function uses a non-reentrant model
  3214 ;;
  3215                           
  3216     034C                     _RS232_cmd:	
  3217                           ;psect for function _RS232_cmd
  3218                           
  3219                           
  3220                           ;incstack = 0
  3221                           ; Regs used in _RS232_cmd: [wreg-fsr1h+status,2+status,0]
  3222                           ;RS232_cmd@str stored from wreg
  3223     034C  00F3               	movwf	RS232_cmd@str
  3224     034D                     l1229:
  3225                           
  3226                           ;My_UART2_1.c: 257: void RS232_cmd(char *str);My_UART2_1.c: 258: {;My_UART2_1.c: 259:   
      +                            uint8_t position = 0;
  3227     034D  01F4               	clrf	RS232_cmd@position
  3228                           
  3229                           ;My_UART2_1.c: 261:     while (read_RS232[position] != '\0')
  3230     034E  2B60               	goto	l1237
  3231     034F                     l1231:
  3232                           
  3233                           ;My_UART2_1.c: 262:     {;My_UART2_1.c: 263:         *str = read_RS232[position];
  3234     034F  0873               	movf	RS232_cmd@str,w
  3235     0350  0086               	movwf	6
  3236     0351  0187               	clrf	7
  3237     0352  0874               	movf	RS232_cmd@position,w
  3238     0353  3EA0               	addlw	(low (_read_RS232| 0))& (0+255)
  3239     0354  0084               	movwf	4
  3240     0355  0185               	clrf	5
  3241     0356  0800               	movf	0,w
  3242     0357  0081               	movwf	1
  3243     0358                     l1233:
  3244                           
  3245                           ;My_UART2_1.c: 264:         str++;
  3246     0358  3001               	movlw	1
  3247     0359  00F2               	movwf	??_RS232_cmd
  3248     035A  0872               	movf	??_RS232_cmd,w
  3249     035B  07F3               	addwf	RS232_cmd@str,f
  3250     035C                     l1235:
  3251                           
  3252                           ;My_UART2_1.c: 265:         position++;
  3253     035C  3001               	movlw	1
  3254     035D  00F2               	movwf	??_RS232_cmd
  3255     035E  0872               	movf	??_RS232_cmd,w
  3256     035F  07F4               	addwf	RS232_cmd@position,f
  3257     0360                     l1237:
  3258                           
  3259                           ;My_UART2_1.c: 261:     while (read_RS232[position] != '\0')
  3260     0360  0874               	movf	RS232_cmd@position,w
  3261     0361  3EA0               	addlw	(low (_read_RS232| 0))& (0+255)
  3262     0362  0086               	movwf	6
  3263     0363  0187               	clrf	7
  3264     0364  0801               	movf	1,w
  3265     0365  1D03               	btfss	3,2
  3266     0366  2B68               	goto	u591
  3267     0367  2B69               	goto	u590
  3268     0368                     u591:
  3269     0368  2B4F               	goto	l1231
  3270     0369                     u590:
  3271     0369                     l1239:
  3272                           
  3273                           ;My_UART2_1.c: 267:     cmdRS323Receive = 0;
  3274     0369  01F8               	clrf	_cmdRS323Receive
  3275     036A                     l139:
  3276     036A  0008               	return
  3277     036B                     __end_of_RS232_cmd:
  3278                           
  3279                           	psect	text12
  3280     02E8                     __ptext12:	
  3281 ;; *************** function _PIC_Init *****************
  3282 ;; Defined at:
  3283 ;;		line 294 in file "main_01.c"
  3284 ;; Parameters:    Size  Location     Type
  3285 ;;		None
  3286 ;; Auto vars:     Size  Location     Type
  3287 ;;		None
  3288 ;; Return value:  Size  Location     Type
  3289 ;;                  1    wreg      void 
  3290 ;; Registers used:
  3291 ;;		wreg, status,2, status,0
  3292 ;; Tracked objects:
  3293 ;;		On entry : 0/0
  3294 ;;		On exit  : 0/0
  3295 ;;		Unchanged: 0/0
  3296 ;; Data sizes:     COMMON   BANK0   BANK1   BANK2   BANK3   BANK4   BANK5   BANK6   BANK7   BANK8   BANK9  BANK10  BANK1
      +1  BANK12  BANK13  BANK14  BANK15  BANK16  BANK17  BANK18  BANK19  BANK20  BANK21  BANK22  BANK23  BANK24  BANK25
  3297 ;;      Params:         0       0       0       0       0       0       0       0       0       0       0       0       
      +0       0       0       0       0       0       0       0       0       0       0       0       0       0       0
  3298 ;;      Locals:         0       0       0       0       0       0       0       0       0       0       0       0       
      +0       0       0       0       0       0       0       0       0       0       0       0       0       0       0
  3299 ;;      Temps:          0       0       0       0       0       0       0       0       0       0       0       0       
      +0       0       0       0       0       0       0       0       0       0       0       0       0       0       0
  3300 ;;      Totals:         0       0       0       0       0       0       0       0       0       0       0       0       
      +0       0       0       0       0       0       0       0       0       0       0       0       0       0       0
  3301 ;;Total ram usage:        0 bytes
  3302 ;; Hardware stack levels used: 1
  3303 ;; Hardware stack levels required when called: 3
  3304 ;; This function calls:
  3305 ;;		Nothing
  3306 ;; This function is called by:
  3307 ;;		_main
  3308 ;; This function uses a non-reentrant model
  3309 ;;
  3310                           
  3311     02E8                     _PIC_Init:	
  3312                           ;psect for function _PIC_Init
  3313                           
  3314     02E8                     l1241:	
  3315                           ;incstack = 0
  3316                           ; Regs used in _PIC_Init: [wreg+status,2+status,0]
  3317                           
  3318                           
  3319                           ;main_01.c: 300:     OSCCON1 = 0x60;
  3320     02E8  3060               	movlw	96
  3321     02E9  0151               	movlb	17	; select bank17
  3322     02EA  008D               	movwf	13	;volatile
  3323     02EB                     l1243:
  3324                           
  3325                           ;main_01.c: 301:     OSCCON1bits.NOSC = 0b110;
  3326     02EB  080D               	movf	13,w	;volatile
  3327     02EC  398F               	andlw	-113
  3328     02ED  3860               	iorlw	96
  3329     02EE  008D               	movwf	13	;volatile
  3330     02EF                     l1245:
  3331                           
  3332                           ;main_01.c: 304:     OSCCON3 = 0x00;
  3333     02EF  018F               	clrf	15	;volatile
  3334     02F0                     l1247:
  3335                           
  3336                           ;main_01.c: 306:     OSCEN = 0x00;
  3337     02F0  0191               	clrf	17	;volatile
  3338     02F1                     l1249:
  3339                           
  3340                           ;main_01.c: 308:     OSCFRQ = 0x03;
  3341     02F1  3003               	movlw	3
  3342     02F2  0093               	movwf	19	;volatile
  3343     02F3                     l1251:
  3344                           
  3345                           ;main_01.c: 311:     ANSELA = 0;
  3346     02F3  017E               	movlb	62	; select bank62
  3347     02F4  01B8               	clrf	56	;volatile
  3348     02F5                     l1253:
  3349                           
  3350                           ;main_01.c: 312:     ANSELB = 0;
  3351     02F5  01C3               	clrf	67	;volatile
  3352     02F6                     l1255:
  3353                           
  3354                           ;main_01.c: 313:     ANSELC = 0;
  3355     02F6  01CE               	clrf	78	;volatile
  3356     02F7                     l1257:
  3357                           
  3358                           ;main_01.c: 316:     LATA = 0b11111111;
  3359     02F7  30FF               	movlw	255
  3360     02F8  0140               	movlb	0	; select bank0
  3361     02F9  0098               	movwf	24	;volatile
  3362     02FA                     l1259:
  3363                           
  3364                           ;main_01.c: 317:     LATB = 0b00111111;
  3365     02FA  303F               	movlw	63
  3366     02FB  0099               	movwf	25	;volatile
  3367     02FC                     l1261:
  3368                           
  3369                           ;main_01.c: 318:     LATC = 0b00000000;
  3370     02FC  019A               	clrf	26	;volatile
  3371     02FD                     l1263:
  3372                           
  3373                           ;main_01.c: 321:     TRISA = 0b00000000;
  3374     02FD  0192               	clrf	18	;volatile
  3375     02FE                     l1265:
  3376                           
  3377                           ;main_01.c: 322:     TRISB = 0b11001000;
  3378     02FE  30C8               	movlw	200
  3379     02FF  0093               	movwf	19	;volatile
  3380     0300                     l1267:
  3381                           
  3382                           ;main_01.c: 323:     TRISC = 0b10000111;
  3383     0300  3087               	movlw	135
  3384     0301  0094               	movwf	20	;volatile
  3385     0302                     l1269:
  3386                           
  3387                           ;main_01.c: 325:     RB2PPS = 0x11;
  3388     0302  3011               	movlw	17
  3389     0303  017E               	movlb	62	; select bank62
  3390     0304  009A               	movwf	26	;volatile
  3391     0305                     l1271:
  3392                           
  3393                           ;main_01.c: 326:     RC6PPS = 0x0F;
  3394     0305  300F               	movlw	15
  3395     0306  00A6               	movwf	38	;volatile
  3396     0307                     l1273:
  3397                           
  3398                           ;main_01.c: 327:     RX2DTPPS = 0x0B;
  3399     0307  300B               	movlw	11
  3400     0308  017D               	movlb	61	; select bank61
  3401     0309  00CD               	movwf	77	;volatile
  3402     030A                     l1275:
  3403                           
  3404                           ;main_01.c: 328:     RX1DTPPS = 0x17;
  3405     030A  3017               	movlw	23
  3406     030B  00CB               	movwf	75	;volatile
  3407     030C                     l299:
  3408     030C  0008               	return
  3409     030D                     __end_of_PIC_Init:
  3410                           
  3411                           	psect	text13
  3412     030D                     __ptext13:	
  3413 ;; *************** function _Modem_cmd *****************
  3414 ;; Defined at:
  3415 ;;		line 220 in file "My_UART1.c"
  3416 ;; Parameters:    Size  Location     Type
  3417 ;;  str             1    wreg     PTR unsigned char 
  3418 ;;		 -> main@str_modem(20), 
  3419 ;; Auto vars:     Size  Location     Type
  3420 ;;  str             1    3[COMMON] PTR unsigned char 
  3421 ;;		 -> main@str_modem(20), 
  3422 ;;  position        1    4[COMMON] unsigned char 
  3423 ;; Return value:  Size  Location     Type
  3424 ;;                  1    wreg      void 
  3425 ;; Registers used:
  3426 ;;		wreg, fsr0l, fsr0h, fsr1l, fsr1h, status,2, status,0
  3427 ;; Tracked objects:
  3428 ;;		On entry : 0/0
  3429 ;;		On exit  : 0/0
  3430 ;;		Unchanged: 0/0
  3431 ;; Data sizes:     COMMON   BANK0   BANK1   BANK2   BANK3   BANK4   BANK5   BANK6   BANK7   BANK8   BANK9  BANK10  BANK1
      +1  BANK12  BANK13  BANK14  BANK15  BANK16  BANK17  BANK18  BANK19  BANK20  BANK21  BANK22  BANK23  BANK24  BANK25
  3432 ;;      Params:         0       0       0       0       0       0       0       0       0       0       0       0       
      +0       0       0       0       0       0       0       0       0       0       0       0       0       0       0
  3433 ;;      Locals:         2       0       0       0       0       0       0       0       0       0       0       0       
      +0       0       0       0       0       0       0       0       0       0       0       0       0       0       0
  3434 ;;      Temps:          1       0       0       0       0       0       0       0       0       0       0       0       
      +0       0       0       0       0       0       0       0       0       0       0       0       0       0       0
  3435 ;;      Totals:         3       0       0       0       0       0       0       0       0       0       0       0       
      +0       0       0       0       0       0       0       0       0       0       0       0       0       0       0
  3436 ;;Total ram usage:        3 bytes
  3437 ;; Hardware stack levels used: 1
  3438 ;; Hardware stack levels required when called: 3
  3439 ;; This function calls:
  3440 ;;		Nothing
  3441 ;; This function is called by:
  3442 ;;		_main
  3443 ;; This function uses a non-reentrant model
  3444 ;;
  3445                           
  3446     030D                     _Modem_cmd:	
  3447                           ;psect for function _Modem_cmd
  3448                           
  3449                           
  3450                           ;incstack = 0
  3451                           ; Regs used in _Modem_cmd: [wreg-fsr1h+status,2+status,0]
  3452                           ;Modem_cmd@str stored from wreg
  3453     030D  00F3               	movwf	Modem_cmd@str
  3454     030E                     l1175:
  3455                           
  3456                           ;My_UART1.c: 220: void Modem_cmd(char *str);My_UART1.c: 221: {;My_UART1.c: 222:     uint
      +                          8_t position = 0;
  3457     030E  01F4               	clrf	Modem_cmd@position
  3458                           
  3459                           ;My_UART1.c: 224:     while (read_modem[position] != 0x0A)
  3460     030F  2B21               	goto	l1183
  3461     0310                     l1177:
  3462                           
  3463                           ;My_UART1.c: 225:     {;My_UART1.c: 226:         *str = read_modem[position];
  3464     0310  0873               	movf	Modem_cmd@str,w
  3465     0311  0086               	movwf	6
  3466     0312  0187               	clrf	7
  3467     0313  0874               	movf	Modem_cmd@position,w
  3468     0314  3E48               	addlw	(low (_read_modem| 0))& (0+255)
  3469     0315  0084               	movwf	4
  3470     0316  0185               	clrf	5
  3471     0317  0800               	movf	0,w
  3472     0318  0081               	movwf	1
  3473     0319                     l1179:
  3474                           
  3475                           ;My_UART1.c: 227:         str++;
  3476     0319  3001               	movlw	1
  3477     031A  00F2               	movwf	??_Modem_cmd
  3478     031B  0872               	movf	??_Modem_cmd,w
  3479     031C  07F3               	addwf	Modem_cmd@str,f
  3480     031D                     l1181:
  3481                           
  3482                           ;My_UART1.c: 228:         position++;
  3483     031D  3001               	movlw	1
  3484     031E  00F2               	movwf	??_Modem_cmd
  3485     031F  0872               	movf	??_Modem_cmd,w
  3486     0320  07F4               	addwf	Modem_cmd@position,f
  3487     0321                     l1183:
  3488                           
  3489                           ;My_UART1.c: 224:     while (read_modem[position] != 0x0A)
  3490     0321  0874               	movf	Modem_cmd@position,w
  3491     0322  3E48               	addlw	(low (_read_modem| 0))& (0+255)
  3492     0323  0086               	movwf	6
  3493     0324  0187               	clrf	7
  3494     0325  300A               	movlw	10
  3495     0326  0601               	xorwf	1,w
  3496     0327  1D03               	btfss	3,2
  3497     0328  2B2A               	goto	u551
  3498     0329  2B2B               	goto	u550
  3499     032A                     u551:
  3500     032A  2B10               	goto	l1177
  3501     032B                     u550:
  3502     032B                     l1185:
  3503                           
  3504                           ;My_UART1.c: 230:     cmdModemReceive = 0;
  3505     032B  01FA               	clrf	_cmdModemReceive
  3506     032C                     l64:
  3507     032C  0008               	return
  3508     032D                     __end_of_Modem_cmd:
  3509                           
  3510                           	psect	text14
  3511     045B                     __ptext14:	
  3512 ;; *************** function _Modem_EmptyData *****************
  3513 ;; Defined at:
  3514 ;;		line 203 in file "My_UART1.c"
  3515 ;; Parameters:    Size  Location     Type
  3516 ;;		None
  3517 ;; Auto vars:     Size  Location     Type
  3518 ;;		None
  3519 ;; Return value:  Size  Location     Type
  3520 ;;                  1    wreg      void 
  3521 ;; Registers used:
  3522 ;;		status,2
  3523 ;; Tracked objects:
  3524 ;;		On entry : 0/0
  3525 ;;		On exit  : 0/0
  3526 ;;		Unchanged: 0/0
  3527 ;; Data sizes:     COMMON   BANK0   BANK1   BANK2   BANK3   BANK4   BANK5   BANK6   BANK7   BANK8   BANK9  BANK10  BANK1
      +1  BANK12  BANK13  BANK14  BANK15  BANK16  BANK17  BANK18  BANK19  BANK20  BANK21  BANK22  BANK23  BANK24  BANK25
  3528 ;;      Params:         0       0       0       0       0       0       0       0       0       0       0       0       
      +0       0       0       0       0       0       0       0       0       0       0       0       0       0       0
  3529 ;;      Locals:         0       0       0       0       0       0       0       0       0       0       0       0       
      +0       0       0       0       0       0       0       0       0       0       0       0       0       0       0
  3530 ;;      Temps:          0       0       0       0       0       0       0       0       0       0       0       0       
      +0       0       0       0       0       0       0       0       0       0       0       0       0       0       0
  3531 ;;      Totals:         0       0       0       0       0       0       0       0       0       0       0       0       
      +0       0       0       0       0       0       0       0       0       0       0       0       0       0       0
  3532 ;;Total ram usage:        0 bytes
  3533 ;; Hardware stack levels used: 1
  3534 ;; Hardware stack levels required when called: 3
  3535 ;; This function calls:
  3536 ;;		Nothing
  3537 ;; This function is called by:
  3538 ;;		_main
  3539 ;; This function uses a non-reentrant model
  3540 ;;
  3541                           
  3542     045B                     _Modem_EmptyData:	
  3543                           ;psect for function _Modem_EmptyData
  3544                           
  3545     045B                     l1169:	
  3546                           ;incstack = 0
  3547                           ; Regs used in _Modem_EmptyData: [status,2]
  3548                           
  3549                           
  3550                           ;My_UART1.c: 205:     PIE3bits.RC1IE = 0;
  3551     045B  014E               	movlb	14	; select bank14
  3552     045C  1299               	bcf	25,5	;volatile
  3553     045D                     l1171:
  3554                           
  3555                           ;My_UART1.c: 207:     read_modem[0] = 0;
  3556     045D  0140               	movlb	0	; select bank0
  3557     045E  01C8               	clrf	_read_modem
  3558                           
  3559                           ;My_UART1.c: 208:     cmdModemReceive = 0;
  3560     045F  01FA               	clrf	_cmdModemReceive
  3561     0460                     l1173:
  3562                           
  3563                           ;My_UART1.c: 210:     PIE3bits.RC1IE = 1;
  3564     0460  014E               	movlb	14	; select bank14
  3565     0461  1699               	bsf	25,5	;volatile
  3566     0462                     l58:
  3567     0462  0008               	return
  3568     0463                     __end_of_Modem_EmptyData:
  3569                           
  3570                           	psect	intentry
  3571     0004                     __pintentry:	
  3572 ;; *************** function _INTERRUPT_InterruptManager *****************
  3573 ;; Defined at:
  3574 ;;		line 254 in file "main_01.c"
  3575 ;; Parameters:    Size  Location     Type
  3576 ;;		None
  3577 ;; Auto vars:     Size  Location     Type
  3578 ;;		None
  3579 ;; Return value:  Size  Location     Type
  3580 ;;                  1    wreg      void 
  3581 ;; Registers used:
  3582 ;;		wreg, fsr1l, fsr1h, status,2, status,0, pclath, cstack
  3583 ;; Tracked objects:
  3584 ;;		On entry : 0/0
  3585 ;;		On exit  : 0/0
  3586 ;;		Unchanged: 0/0
  3587 ;; Data sizes:     COMMON   BANK0   BANK1   BANK2   BANK3   BANK4   BANK5   BANK6   BANK7   BANK8   BANK9  BANK10  BANK1
      +1  BANK12  BANK13  BANK14  BANK15  BANK16  BANK17  BANK18  BANK19  BANK20  BANK21  BANK22  BANK23  BANK24  BANK25
  3588 ;;      Params:         0       0       0       0       0       0       0       0       0       0       0       0       
      +0       0       0       0       0       0       0       0       0       0       0       0       0       0       0
  3589 ;;      Locals:         0       0       0       0       0       0       0       0       0       0       0       0       
      +0       0       0       0       0       0       0       0       0       0       0       0       0       0       0
  3590 ;;      Temps:          0       0       0       0       0       0       0       0       0       0       0       0       
      +0       0       0       0       0       0       0       0       0       0       0       0       0       0       0
  3591 ;;      Totals:         0       0       0       0       0       0       0       0       0       0       0       0       
      +0       0       0       0       0       0       0       0       0       0       0       0       0       0       0
  3592 ;;Total ram usage:        0 bytes
  3593 ;; Hardware stack levels used: 1
  3594 ;; Hardware stack levels required when called: 2
  3595 ;; This function calls:
  3596 ;;		_RS232_Read
  3597 ;; This function is called by:
  3598 ;;		Interrupt level 1
  3599 ;; This function uses a non-reentrant model
  3600 ;;
  3601                           
  3602     0004                     _INTERRUPT_InterruptManager:
  3603                           
  3604                           ;incstack = 0
  3605     0004  147E               	bsf	int$flags,0	;set compiler interrupt flag (level 1)
  3606                           
  3607                           ; Regs used in _INTERRUPT_InterruptManager: [wreg+fsr1l+fsr1h+status,2+status,0+pclath+c
      +                          stack]
  3608     0005  3180               	pagesel	$
  3609     0006                     i1l1389:
  3610                           
  3611                           ;main_01.c: 257:     if (INTCONbits.PEIE == 1)
  3612     0006  1F0B               	btfss	11,6	;volatile
  3613     0007  2809               	goto	u87_21
  3614     0008  280A               	goto	u87_20
  3615     0009                     u87_21:
  3616     0009  283D               	goto	i1l296
  3617     000A                     u87_20:
  3618     000A                     i1l1391:
  3619                           
  3620                           ;main_01.c: 258:     {;main_01.c: 259:         if (PIE3bits.RC2IE == 1 && PIR3bits.RC2IF
      +                           == 1)
  3621     000A  014E               	movlb	14	; select bank14
  3622     000B  1F99               	btfss	25,7	;volatile
  3623     000C  280E               	goto	u88_21
  3624     000D  280F               	goto	u88_20
  3625     000E                     u88_21:
  3626     000E  2817               	goto	i1l286
  3627     000F                     u88_20:
  3628     000F                     i1l1393:
  3629     000F  1F8F               	btfss	15,7	;volatile
  3630     0010  2812               	goto	u89_21
  3631     0011  2813               	goto	u89_20
  3632     0012                     u89_21:
  3633     0012  2817               	goto	i1l286
  3634     0013                     u89_20:
  3635     0013                     i1l1395:
  3636                           
  3637                           ;main_01.c: 260:         {;main_01.c: 261:             RS232_Read();
  3638     0013  3182  22C1  3180   	fcall	_RS232_Read
  3639                           
  3640                           ;main_01.c: 262:         }
  3641     0016  283D               	goto	i1l296
  3642     0017                     i1l286:	
  3643                           ;main_01.c: 263:         else if (PIE3bits.TX2IE == 1 && PIR3bits.TX2IF == 1)
  3644                           
  3645     0017  1F19               	btfss	25,6	;volatile
  3646     0018  281A               	goto	u90_21
  3647     0019  281B               	goto	u90_20
  3648     001A                     u90_21:
  3649     001A  2821               	goto	i1l288
  3650     001B                     u90_20:
  3651     001B                     i1l1397:
  3652     001B  1F0F               	btfss	15,6	;volatile
  3653     001C  281E               	goto	u91_21
  3654     001D  281F               	goto	u91_20
  3655     001E                     u91_21:
  3656     001E  2821               	goto	i1l288
  3657     001F                     u91_20:
  3658     001F                     i1l1399:
  3659                           
  3660                           ;main_01.c: 264:         {;main_01.c: 265:             PIR3bits.TX1IF = 0;
  3661     001F  120F               	bcf	15,4	;volatile
  3662                           
  3663                           ;main_01.c: 266:         }
  3664     0020  283D               	goto	i1l296
  3665     0021                     i1l288:	
  3666                           ;main_01.c: 267:         else if (PIE3bits.RC1IE == 1 && PIR3bits.RC1IF == 1)
  3667                           
  3668     0021  1E99               	btfss	25,5	;volatile
  3669     0022  2824               	goto	u92_21
  3670     0023  2825               	goto	u92_20
  3671     0024                     u92_21:
  3672     0024  282A               	goto	i1l290
  3673     0025                     u92_20:
  3674     0025                     i1l1401:
  3675     0025  1E8F               	btfss	15,5	;volatile
  3676     0026  2828               	goto	u93_21
  3677     0027  2829               	goto	u93_20
  3678     0028                     u93_21:
  3679     0028  282A               	goto	i1l290
  3680     0029                     u93_20:
  3681     0029  283D               	goto	i1l296
  3682     002A                     i1l290:	
  3683                           ;main_01.c: 271:         else if (PIE3bits.RC2IE == 1 && PIR3bits.RC2IF == 1)
  3684                           
  3685     002A  1F99               	btfss	25,7	;volatile
  3686     002B  282D               	goto	u94_21
  3687     002C  282E               	goto	u94_20
  3688     002D                     u94_21:
  3689     002D  2833               	goto	i1l292
  3690     002E                     u94_20:
  3691     002E                     i1l1405:
  3692     002E  1F8F               	btfss	15,7	;volatile
  3693     002F  2831               	goto	u95_21
  3694     0030  2832               	goto	u95_20
  3695     0031                     u95_21:
  3696     0031  2833               	goto	i1l292
  3697     0032                     u95_20:
  3698     0032  2813               	goto	i1l1395
  3699     0033                     i1l292:	
  3700                           ;main_01.c: 275:         else if (PIE3bits.TX1IE == 1 && PIR3bits.TX1IF == 1)
  3701                           
  3702     0033  1E19               	btfss	25,4	;volatile
  3703     0034  2836               	goto	u96_21
  3704     0035  2837               	goto	u96_20
  3705     0036                     u96_21:
  3706     0036  283D               	goto	i1l289
  3707     0037                     u96_20:
  3708     0037                     i1l1409:
  3709     0037  1E0F               	btfss	15,4	;volatile
  3710     0038  283A               	goto	u97_21
  3711     0039  283B               	goto	u97_20
  3712     003A                     u97_21:
  3713     003A  283D               	goto	i1l289
  3714     003B                     u97_20:
  3715     003B                     i1l1411:
  3716                           
  3717                           ;main_01.c: 276:         {;main_01.c: 277:             PIR3bits.TX1IF = 0;
  3718     003B  120F               	bcf	15,4	;volatile
  3719     003C  283D               	goto	i1l296
  3720     003D                     i1l289:
  3721     003D                     i1l296:
  3722     003D  107E               	bcf	int$flags,0	;clear compiler interrupt flag (level 1)
  3723     003E  0009               	retfie
  3724     003F                     __end_of_INTERRUPT_InterruptManager:
  3725                           
  3726                           	psect	text16
  3727     02C1                     __ptext16:	
  3728 ;; *************** function _RS232_Read *****************
  3729 ;; Defined at:
  3730 ;;		line 203 in file "My_UART2_1.c"
  3731 ;; Parameters:    Size  Location     Type
  3732 ;;		None
  3733 ;; Auto vars:     Size  Location     Type
  3734 ;;  data            1    1[COMMON] unsigned char 
  3735 ;; Return value:  Size  Location     Type
  3736 ;;                  1    wreg      void 
  3737 ;; Registers used:
  3738 ;;		wreg, fsr1l, fsr1h, status,2, status,0, pclath, cstack
  3739 ;; Tracked objects:
  3740 ;;		On entry : 0/0
  3741 ;;		On exit  : 0/0
  3742 ;;		Unchanged: 0/0
  3743 ;; Data sizes:     COMMON   BANK0   BANK1   BANK2   BANK3   BANK4   BANK5   BANK6   BANK7   BANK8   BANK9  BANK10  BANK1
      +1  BANK12  BANK13  BANK14  BANK15  BANK16  BANK17  BANK18  BANK19  BANK20  BANK21  BANK22  BANK23  BANK24  BANK25
  3744 ;;      Params:         0       0       0       0       0       0       0       0       0       0       0       0       
      +0       0       0       0       0       0       0       0       0       0       0       0       0       0       0
  3745 ;;      Locals:         1       0       0       0       0       0       0       0       0       0       0       0       
      +0       0       0       0       0       0       0       0       0       0       0       0       0       0       0
  3746 ;;      Temps:          1       0       0       0       0       0       0       0       0       0       0       0       
      +0       0       0       0       0       0       0       0       0       0       0       0       0       0       0
  3747 ;;      Totals:         2       0       0       0       0       0       0       0       0       0       0       0       
      +0       0       0       0       0       0       0       0       0       0       0       0       0       0       0
  3748 ;;Total ram usage:        2 bytes
  3749 ;; Hardware stack levels used: 1
  3750 ;; Hardware stack levels required when called: 1
  3751 ;; This function calls:
  3752 ;;		_UART2_Read
  3753 ;; This function is called by:
  3754 ;;		_INTERRUPT_InterruptManager
  3755 ;; This function uses a non-reentrant model
  3756 ;;
  3757                           
  3758     02C1                     _RS232_Read:	
  3759                           ;psect for function _RS232_Read
  3760                           
  3761     02C1                     i1l1209:	
  3762                           ;incstack = 0
  3763                           ; Regs used in _RS232_Read: [wreg+fsr1l+fsr1h+status,2+status,0+pclath+cstack]
  3764                           
  3765                           
  3766                           ;My_UART2_1.c: 205:     static uint8_t position = 0;;My_UART2_1.c: 206:     char data;;M
      +                          y_UART2_1.c: 208:     data = UART2_Read();
  3767     02C1  3184  2499  3182   	fcall	_UART2_Read
  3768     02C4  00F1               	movwf	RS232_Read@data
  3769     02C5                     i1l1211:
  3770                           
  3771                           ;My_UART2_1.c: 210:     if (data != '\0')
  3772     02C5  0871               	movf	RS232_Read@data,w
  3773     02C6  1903               	btfsc	3,2
  3774     02C7  2AC9               	goto	u57_21
  3775     02C8  2ACA               	goto	u57_20
  3776     02C9                     u57_21:
  3777     02C9  2AE5               	goto	i1l1227
  3778     02CA                     u57_20:
  3779     02CA                     i1l1213:
  3780                           
  3781                           ;My_UART2_1.c: 211:     {;My_UART2_1.c: 212:         if (data == 0x0D)
  3782     02CA  300D               	movlw	13
  3783     02CB  0671               	xorwf	RS232_Read@data,w
  3784     02CC  1D03               	btfss	3,2
  3785     02CD  2ACF               	goto	u58_21
  3786     02CE  2AD0               	goto	u58_20
  3787     02CF                     u58_21:
  3788     02CF  2AD9               	goto	i1l1221
  3789     02D0                     u58_20:
  3790     02D0                     i1l1215:
  3791                           
  3792                           ;My_UART2_1.c: 213:         {;My_UART2_1.c: 214:             read_RS232[position] = '\0'
      +                          ;
  3793     02D0  0877               	movf	RS232_Read@position,w
  3794     02D1  3EA0               	addlw	(low (_read_RS232| 0))& (0+255)
  3795     02D2  0086               	movwf	6
  3796     02D3  0187               	clrf	7
  3797     02D4  0181               	clrf	1
  3798     02D5                     i1l1217:
  3799                           
  3800                           ;My_UART2_1.c: 215:             cmdRS323Receive = 1;
  3801     02D5  01F8               	clrf	_cmdRS323Receive
  3802     02D6  0AF8               	incf	_cmdRS323Receive,f
  3803     02D7                     i1l1219:
  3804                           
  3805                           ;My_UART2_1.c: 216:             position = 0;
  3806     02D7  01F7               	clrf	RS232_Read@position
  3807                           
  3808                           ;My_UART2_1.c: 218:         }
  3809     02D8  2AE7               	goto	i1l130
  3810     02D9                     i1l1221:
  3811                           
  3812                           ;My_UART2_1.c: 220:         {;My_UART2_1.c: 221:             read_RS232[position] = data
      +                          ;
  3813     02D9  0877               	movf	RS232_Read@position,w
  3814     02DA  3EA0               	addlw	(low (_read_RS232| 0))& (0+255)
  3815     02DB  0086               	movwf	6
  3816     02DC  0187               	clrf	7
  3817     02DD  0871               	movf	RS232_Read@data,w
  3818     02DE  0081               	movwf	1
  3819     02DF                     i1l1223:
  3820                           
  3821                           ;My_UART2_1.c: 222:             position++;
  3822     02DF  3001               	movlw	1
  3823     02E0  00F0               	movwf	??_RS232_Read
  3824     02E1  0870               	movf	??_RS232_Read,w
  3825     02E2  07F7               	addwf	RS232_Read@position,f
  3826     02E3                     i1l1225:
  3827                           
  3828                           ;My_UART2_1.c: 223:             cmdRS323Receive = 0;
  3829     02E3  01F8               	clrf	_cmdRS323Receive
  3830     02E4  2AE7               	goto	i1l130
  3831     02E5                     i1l1227:
  3832                           
  3833                           ;My_UART2_1.c: 227:     {;My_UART2_1.c: 228:         cmdRS323Receive = 0;
  3834     02E5  01F8               	clrf	_cmdRS323Receive
  3835                           
  3836                           ;My_UART2_1.c: 229:         position = 0;
  3837     02E6  01F7               	clrf	RS232_Read@position
  3838     02E7                     i1l130:
  3839     02E7  0008               	return
  3840     02E8                     __end_of_RS232_Read:
  3841                           
  3842                           	psect	text17
  3843     0499                     __ptext17:	
  3844 ;; *************** function _UART2_Read *****************
  3845 ;; Defined at:
  3846 ;;		line 125 in file "My_UART2_1.c"
  3847 ;; Parameters:    Size  Location     Type
  3848 ;;		None
  3849 ;; Auto vars:     Size  Location     Type
  3850 ;;		None
  3851 ;; Return value:  Size  Location     Type
  3852 ;;                  1    wreg      unsigned char 
  3853 ;; Registers used:
  3854 ;;		wreg
  3855 ;; Tracked objects:
  3856 ;;		On entry : 0/0
  3857 ;;		On exit  : 0/0
  3858 ;;		Unchanged: 0/0
  3859 ;; Data sizes:     COMMON   BANK0   BANK1   BANK2   BANK3   BANK4   BANK5   BANK6   BANK7   BANK8   BANK9  BANK10  BANK1
      +1  BANK12  BANK13  BANK14  BANK15  BANK16  BANK17  BANK18  BANK19  BANK20  BANK21  BANK22  BANK23  BANK24  BANK25
  3860 ;;      Params:         0       0       0       0       0       0       0       0       0       0       0       0       
      +0       0       0       0       0       0       0       0       0       0       0       0       0       0       0
  3861 ;;      Locals:         0       0       0       0       0       0       0       0       0       0       0       0       
      +0       0       0       0       0       0       0       0       0       0       0       0       0       0       0
  3862 ;;      Temps:          0       0       0       0       0       0       0       0       0       0       0       0       
      +0       0       0       0       0       0       0       0       0       0       0       0       0       0       0
  3863 ;;      Totals:         0       0       0       0       0       0       0       0       0       0       0       0       
      +0       0       0       0       0       0       0       0       0       0       0       0       0       0       0
  3864 ;;Total ram usage:        0 bytes
  3865 ;; Hardware stack levels used: 1
  3866 ;; This function calls:
  3867 ;;		Nothing
  3868 ;; This function is called by:
  3869 ;;		_RS232_Read
  3870 ;; This function uses a non-reentrant model
  3871 ;;
  3872                           
  3873     0499                     _UART2_Read:	
  3874                           ;psect for function _UART2_Read
  3875                           
  3876     0499                     i1l1151:	
  3877                           ;incstack = 0
  3878                           ; Regs used in _UART2_Read: [wreg]
  3879                           
  3880                           
  3881                           ;My_UART2_1.c: 128:     return RC2REG;
  3882     0499  0154               	movlb	20	; select bank20
  3883     049A  0819               	movf	25,w	;volatile
  3884     049B                     i1l103:
  3885     049B  0008               	return
  3886     049C                     __end_of_UART2_Read:
  3887     007E                     btemp	set	126	;btemp
  3888     007E                     int$flags	set	126
  3889     007E                     wtemp0	set	126
  3890                           
  3891                           	psect	idloc
  3892                           
  3893                           ;Config register IDLOC0 @ 0x8000
  3894                           ;	unspecified, using default values
  3895     8000                     	org	32768
  3896     8000  3FFF               	dw	16383
  3897                           
  3898                           ;Config register IDLOC1 @ 0x8001
  3899                           ;	unspecified, using default values
  3900     8001                     	org	32769
  3901     8001  3FFF               	dw	16383
  3902                           
  3903                           ;Config register IDLOC2 @ 0x8002
  3904                           ;	unspecified, using default values
  3905     8002                     	org	32770
  3906     8002  3FFF               	dw	16383
  3907                           
  3908                           ;Config register IDLOC3 @ 0x8003
  3909                           ;	unspecified, using default values
  3910     8003                     	org	32771
  3911     8003  3FFF               	dw	16383
  3912                           
  3913                           	psect	config
  3914                           
  3915                           ;Config register CONFIG1 @ 0x8007
  3916                           ;	External Oscillator mode selection bits
  3917                           ;	FEXTOSC = OFF, Oscillator not enabled
  3918                           ;	Power-up default value for COSC bits
  3919                           ;	RSTOSC = HFINT1, HFINTOSC (1MHz)
  3920                           ;	Clock Out Enable bit
  3921                           ;	CLKOUTEN = OFF, CLKOUT function is disabled; i/o or oscillator function on OSC2
  3922                           ;	Clock Switch Enable bit
  3923                           ;	CSWEN = ON, Writing to NOSC and NDIV is allowed
  3924                           ;	Fail-Safe Clock Monitor Enable bit
  3925                           ;	FCMEN = ON, FSCM timer enabled
  3926     8007                     	org	32775
  3927     8007  3FEC               	dw	16364
  3928                           
  3929                           ;Config register CONFIG2 @ 0x8008
  3930                           ;	Master Clear Enable bit
  3931                           ;	MCLRE = ON, MCLR pin is Master Clear function
  3932                           ;	Power-up Timer Enable bit
  3933                           ;	PWRTE = OFF, PWRT disabled
  3934                           ;	Low-Power BOR enable bit
  3935                           ;	LPBOREN = OFF, ULPBOR disabled
  3936                           ;	Brown-out reset enable bits
  3937                           ;	BOREN = ON, Brown-out Reset Enabled, SBOREN bit is ignored
  3938                           ;	Brown-out Reset Voltage Selection
  3939                           ;	BORV = LO, Brown-out Reset Voltage (VBOR) set to 1.9V on LF, and 2.45V on F Devices
  3940                           ;	Zero-cross detect disable
  3941                           ;	ZCD = OFF, Zero-cross detect circuit is disabled at POR.
  3942                           ;	Peripheral Pin Select one-way control
  3943                           ;	PPS1WAY = ON, The PPSLOCK bit can be cleared and set only once in software
  3944                           ;	Stack Overflow/Underflow Reset Enable bit
  3945                           ;	STVREN = ON, Stack Overflow or Underflow will cause a reset
  3946     8008                     	org	32776
  3947     8008  3FFF               	dw	16383
  3948                           
  3949                           ;Config register CONFIG3 @ 0x8009
  3950                           ;	WDT Period Select bits
  3951                           ;	WDTCPS = WDTCPS_31, Divider ratio 1:65536; software control of WDTPS
  3952                           ;	WDT operating mode
  3953                           ;	WDTE = OFF, WDT Disabled, SWDTEN is ignored
  3954                           ;	WDT Window Select bits
  3955                           ;	WDTCWS = WDTCWS_7, window always open (100%); software control; keyed access not requi
      +                          red
  3956                           ;	WDT input clock selector
  3957                           ;	WDTCCS = SC, Software Control
  3958     8009                     	org	32777
  3959     8009  3F9F               	dw	16287
  3960                           
  3961                           ;Config register CONFIG4 @ 0x800A
  3962                           ;	Boot Block Size Selection bits
  3963                           ;	BBSIZE = BB512, 512 words boot block size
  3964                           ;	Boot Block Enable bit
  3965                           ;	BBEN = OFF, Boot Block disabled
  3966                           ;	SAF Enable bit
  3967                           ;	SAFEN = OFF, SAF disabled
  3968                           ;	Application Block Write Protection bit
  3969                           ;	WRTAPP = OFF, Application Block not write protected
  3970                           ;	Boot Block Write Protection bit
  3971                           ;	WRTB = OFF, Boot Block not write protected
  3972                           ;	Configuration Register Write Protection bit
  3973                           ;	WRTC = OFF, Configuration Register not write protected
  3974                           ;	Storage Area Flash Write Protection bit
  3975                           ;	WRTSAF = OFF, SAF not write protected
  3976                           ;	Low Voltage Programming Enable bit
  3977                           ;	LVP = ON, Low Voltage programming enabled. MCLR/Vpp pin function is MCLR.
  3978     800A                     	org	32778
  3979     800A  3FFF               	dw	16383
  3980                           
  3981                           ;Config register CONFIG5 @ 0x800B
  3982                           ;	UserNVM Program memory code protection bit
  3983                           ;	CP = OFF, UserNVM code protection disabled
  3984     800B                     	org	32779
  3985     800B  3FFF               	dw	16383

Data Sizes:
    Strings     248
    Constant    0
    Data        0
    BSS         115
    Persistent  32
    Stack       0

Auto Spaces:
    Space          Size  Autos    Used
    COMMON           14      7      11
    BANK0            80     40      61
    BANK1            80      0      65
    BANK2            80      0      25
    BANK3            80      0       0
    BANK4            80      0       0
    BANK5            80      0       0
    BANK6            80      0       0
    BANK7            80      0       0
    BANK8            80      0       0
    BANK9            80      0       0
    BANK10           80      0       0
    BANK11           80      0       0
    BANK12           80      0       0
    BANK13           80      0       0
    BANK14           80      0       0
    BANK15           80      0       0
    BANK16           80      0       0
    BANK17           80      0       0
    BANK18           80      0       0
    BANK19           80      0       0
    BANK20           80      0       0
    BANK21           80      0       0
    BANK22           80      0       0
    BANK23           80      0       0
    BANK24           80      0       0
    BANK25           32      0       0

Pointer List with Targets:

    strcmp@r	PTR const unsigned char  size(1) Largest target is 20
		 -> main@str_RS232(BANK0[20]), 

    strcmp@l	PTR const unsigned char  size(2) Largest target is 23
		 -> STR_30(CODE[23]), STR_24(CODE[10]), STR_22(CODE[10]), STR_20(CODE[10]), 
		 -> STR_18(CODE[10]), STR_16(CODE[10]), STR_14(CODE[10]), STR_12(CODE[18]), 
		 -> STR_10(CODE[7]), STR_8(CODE[7]), STR_6(CODE[5]), STR_4(CODE[5]), 
		 -> STR_2(CODE[3]), 

    RS232_cmd@str	PTR unsigned char  size(1) Largest target is 20
		 -> main@str_RS232(BANK0[20]), 

    UART2_SendString@str	PTR unsigned char  size(2) Largest target is 64
		 -> STR_26(CODE[7]), STR_25(CODE[64]), STR_13(CODE[1]), STR_7(CODE[5]), 
		 -> STR_1(CODE[7]), 

    UART2_SendStringCRLF@str	PTR unsigned char  size(2) Largest target is 13
		 -> STR_31(CODE[13]), STR_29(CODE[12]), STR_28(CODE[1]), STR_27(CODE[1]), 
		 -> STR_23(CODE[1]), STR_21(CODE[1]), STR_19(CODE[1]), STR_17(CODE[1]), 
		 -> STR_15(CODE[1]), STR_11(CODE[7]), STR_9(CODE[10]), STR_5(CODE[1]), 
		 -> STR_3(CODE[1]), 

    Modem_cmd@str	PTR unsigned char  size(1) Largest target is 20
		 -> main@str_modem(BANK0[20]), 


Critical Paths under _main in COMMON

    _main->_UART2_SendString
    _main->_UART2_SendStringCRLF
    _main->_strcmp
    _UART2_SendStringCRLF->_UART2_Write
    _UART2_SendOK->_UART2_SendString
    _UART2_SendString->_UART2_Write

Critical Paths under _INTERRUPT_InterruptManager in COMMON

    _INTERRUPT_InterruptManager->_RS232_Read

Critical Paths under _main in BANK0

    None.

Critical Paths under _INTERRUPT_InterruptManager in BANK0

    None.

Critical Paths under _main in BANK1

    None.

Critical Paths under _INTERRUPT_InterruptManager in BANK1

    None.

Critical Paths under _main in BANK2

    None.

Critical Paths under _INTERRUPT_InterruptManager in BANK2

    None.

Critical Paths under _main in BANK3

    None.

Critical Paths under _INTERRUPT_InterruptManager in BANK3

    None.

Critical Paths under _main in BANK4

    None.

Critical Paths under _INTERRUPT_InterruptManager in BANK4

    None.

Critical Paths under _main in BANK5

    None.

Critical Paths under _INTERRUPT_InterruptManager in BANK5

    None.

Critical Paths under _main in BANK6

    None.

Critical Paths under _INTERRUPT_InterruptManager in BANK6

    None.

Critical Paths under _main in BANK7

    None.

Critical Paths under _INTERRUPT_InterruptManager in BANK7

    None.

Critical Paths under _main in BANK8

    None.

Critical Paths under _INTERRUPT_InterruptManager in BANK8

    None.

Critical Paths under _main in BANK9

    None.

Critical Paths under _INTERRUPT_InterruptManager in BANK9

    None.

Critical Paths under _main in BANK10

    None.

Critical Paths under _INTERRUPT_InterruptManager in BANK10

    None.

Critical Paths under _main in BANK11

    None.

Critical Paths under _INTERRUPT_InterruptManager in BANK11

    None.

Critical Paths under _main in BANK12

    None.

Critical Paths under _INTERRUPT_InterruptManager in BANK12

    None.

Critical Paths under _main in BANK13

    None.

Critical Paths under _INTERRUPT_InterruptManager in BANK13

    None.

Critical Paths under _main in BANK14

    None.

Critical Paths under _INTERRUPT_InterruptManager in BANK14

    None.

Critical Paths under _main in BANK15

    None.

Critical Paths under _INTERRUPT_InterruptManager in BANK15

    None.

Critical Paths under _main in BANK16

    None.

Critical Paths under _INTERRUPT_InterruptManager in BANK16

    None.

Critical Paths under _main in BANK17

    None.

Critical Paths under _INTERRUPT_InterruptManager in BANK17

    None.

Critical Paths under _main in BANK18

    None.

Critical Paths under _INTERRUPT_InterruptManager in BANK18

    None.

Critical Paths under _main in BANK19

    None.

Critical Paths under _INTERRUPT_InterruptManager in BANK19

    None.

Critical Paths under _main in BANK20

    None.

Critical Paths under _INTERRUPT_InterruptManager in BANK20

    None.

Critical Paths under _main in BANK21

    None.

Critical Paths under _INTERRUPT_InterruptManager in BANK21

    None.

Critical Paths under _main in BANK22

    None.

Critical Paths under _INTERRUPT_InterruptManager in BANK22

    None.

Critical Paths under _main in BANK23

    None.

Critical Paths under _INTERRUPT_InterruptManager in BANK23

    None.

Critical Paths under _main in BANK24

    None.

Critical Paths under _INTERRUPT_InterruptManager in BANK24

    None.

Critical Paths under _main in BANK25

    None.

Critical Paths under _INTERRUPT_InterruptManager in BANK25

    None.

Call Graph Tables:

 ---------------------------------------------------------------------------------
 (Depth) Function   	        Calls       Base Space   Used Autos Params    Refs
 ---------------------------------------------------------------------------------
 (0) _main                                                41    41      0    4744
                                              6 COMMON     1     1      0
                                              0 BANK0     40    40      0
                    _Modem_EmptyData
                          _Modem_cmd
                           _PIC_Init
                          _RS232_cmd
               _UART1_DataIsReceived
                         _UART1_Init
               _UART2_DataIsReceived
                         _UART2_Init
                       _UART2_SendOK
                   _UART2_SendString
               _UART2_SendStringCRLF
                             _strcmp
 ---------------------------------------------------------------------------------
 (1) _strcmp                                               4     1      3    2088
                                              2 COMMON     4     1      3
 ---------------------------------------------------------------------------------
 (1) _UART2_SendStringCRLF                                 3     1      2    1055
                                              3 COMMON     3     1      2
                        _UART2_Write
 ---------------------------------------------------------------------------------
 (1) _UART2_SendOK                                         0     0      0     447
                   _UART2_SendString
 ---------------------------------------------------------------------------------
 (1) _UART2_SendString                                     3     1      2     447
                                              3 COMMON     3     1      2
                        _UART2_Write
 ---------------------------------------------------------------------------------
 (2) _UART2_Write                                          1     1      0      22
                                              2 COMMON     1     1      0
 ---------------------------------------------------------------------------------
 (1) _UART2_Init                                           0     0      0       0
                    _RS232_EmptyData
 ---------------------------------------------------------------------------------
 (2) _RS232_EmptyData                                      0     0      0       0
 ---------------------------------------------------------------------------------
 (1) _UART2_DataIsReceived                                 0     0      0       0
 ---------------------------------------------------------------------------------
 (1) _UART1_Init                                           0     0      0       0
 ---------------------------------------------------------------------------------
 (1) _UART1_DataIsReceived                                 0     0      0       0
 ---------------------------------------------------------------------------------
 (1) _RS232_cmd                                            3     3      0     168
                                              2 COMMON     3     3      0
 ---------------------------------------------------------------------------------
 (1) _PIC_Init                                             0     0      0       0
 ---------------------------------------------------------------------------------
 (1) _Modem_cmd                                            3     3      0     135
                                              2 COMMON     3     3      0
 ---------------------------------------------------------------------------------
 (1) _Modem_EmptyData                                      0     0      0       0
 ---------------------------------------------------------------------------------
 Estimated maximum stack depth 2
 ---------------------------------------------------------------------------------
 (Depth) Function   	        Calls       Base Space   Used Autos Params    Refs
 ---------------------------------------------------------------------------------
 (4) _INTERRUPT_InterruptManager                           0     0      0      67
                         _RS232_Read
 ---------------------------------------------------------------------------------
 (5) _RS232_Read                                           2     2      0      67
                                              0 COMMON     2     2      0
                         _UART2_Read
 ---------------------------------------------------------------------------------
 (6) _UART2_Read                                           0     0      0       0
 ---------------------------------------------------------------------------------
 Estimated maximum stack depth 6
 ---------------------------------------------------------------------------------

 Call Graph Graphs:

 _main (ROOT)
   _Modem_EmptyData
   _Modem_cmd
   _PIC_Init
   _RS232_cmd
   _UART1_DataIsReceived
   _UART1_Init
   _UART2_DataIsReceived
   _UART2_Init
     _RS232_EmptyData
   _UART2_SendOK
     _UART2_SendString
       _UART2_Write
   _UART2_SendString
   _UART2_SendStringCRLF
     _UART2_Write
   _strcmp

 _INTERRUPT_InterruptManager (ROOT)
   _RS232_Read
     _UART2_Read

 Address spaces:
Name               Size   Autos  Total    Cost      Usage
BIGRAM             7F0      0       0       0        0.0%
NULL                 0      0       0       0        0.0%
CODE                 0      0       0       0        0.0%
BITCOMMON            E      0       0       1        0.0%
BITSFR0              0      0       0       1        0.0%
SFR0                 0      0       0       1        0.0%
COMMON               E      7       B       2       78.6%
BITSFR1              0      0       0       2        0.0%
SFR1                 0      0       0       2        0.0%
BITSFR2              0      0       0       3        0.0%
SFR2                 0      0       0       3        0.0%
STACK                0      0       0       3        0.0%
BITBANK0            50      0       0       4        0.0%
BITSFR3              0      0       0       4        0.0%
SFR3                 0      0       0       4        0.0%
BANK0               50     28      3D       5       76.2%
BITSFR4              0      0       0       5        0.0%
SFR4                 0      0       0       5        0.0%
BITBANK1            50      0       0       6        0.0%
BITSFR5              0      0       0       6        0.0%
SFR5                 0      0       0       6        0.0%
BANK1               50      0      41       7       81.2%
BITSFR6              0      0       0       7        0.0%
SFR6                 0      0       0       7        0.0%
BITSFR7              0      0       0       8        0.0%
SFR7                 0      0       0       8        0.0%
ABS                  0      0      A2       8        0.0%
BITBANK2            50      0       0       9        0.0%
BITSFR8              0      0       0       9        0.0%
SFR8                 0      0       0       9        0.0%
BANK2               50      0      19      10       31.2%
BITSFR9              0      0       0      10        0.0%
SFR9                 0      0       0      10        0.0%
BITBANK3            50      0       0      11        0.0%
BITSFR10             0      0       0      11        0.0%
SFR10                0      0       0      11        0.0%
BANK3               50      0       0      12        0.0%
BITSFR11             0      0       0      12        0.0%
SFR11                0      0       0      12        0.0%
BITBANK4            50      0       0      13        0.0%
BITSFR12             0      0       0      13        0.0%
SFR12                0      0       0      13        0.0%
BANK4               50      0       0      14        0.0%
BITSFR13             0      0       0      14        0.0%
SFR13                0      0       0      14        0.0%
BITBANK5            50      0       0      15        0.0%
BITSFR14             0      0       0      15        0.0%
SFR14                0      0       0      15        0.0%
BANK5               50      0       0      16        0.0%
BITSFR15             0      0       0      16        0.0%
SFR15                0      0       0      16        0.0%
BITBANK6            50      0       0      17        0.0%
BITSFR16             0      0       0      17        0.0%
SFR16                0      0       0      17        0.0%
BANK6               50      0       0      18        0.0%
BITSFR17             0      0       0      18        0.0%
SFR17                0      0       0      18        0.0%
BITBANK7            50      0       0      19        0.0%
BITSFR18             0      0       0      19        0.0%
SFR18                0      0       0      19        0.0%
BANK7               50      0       0      20        0.0%
BITSFR19             0      0       0      20        0.0%
SFR19                0      0       0      20        0.0%
BITBANK8            50      0       0      21        0.0%
BITSFR20             0      0       0      21        0.0%
SFR20                0      0       0      21        0.0%
BANK8               50      0       0      22        0.0%
BITSFR21             0      0       0      22        0.0%
SFR21                0      0       0      22        0.0%
BITBANK9            50      0       0      23        0.0%
BITSFR22             0      0       0      23        0.0%
SFR22                0      0       0      23        0.0%
BANK9               50      0       0      24        0.0%
BITSFR23             0      0       0      24        0.0%
SFR23                0      0       0      24        0.0%
BITBANK10           50      0       0      25        0.0%
BITSFR24             0      0       0      25        0.0%
SFR24                0      0       0      25        0.0%
BANK10              50      0       0      26        0.0%
BITSFR25             0      0       0      26        0.0%
SFR25                0      0       0      26        0.0%
BITBANK11           50      0       0      27        0.0%
BITSFR26             0      0       0      27        0.0%
SFR26                0      0       0      27        0.0%
BANK11              50      0       0      28        0.0%
BITSFR27             0      0       0      28        0.0%
SFR27                0      0       0      28        0.0%
BITBANK12           50      0       0      29        0.0%
BITSFR28             0      0       0      29        0.0%
SFR28                0      0       0      29        0.0%
BANK12              50      0       0      30        0.0%
BITSFR29             0      0       0      30        0.0%
SFR29                0      0       0      30        0.0%
BITBANK13           50      0       0      31        0.0%
BITSFR30             0      0       0      31        0.0%
SFR30                0      0       0      31        0.0%
BANK13              50      0       0      32        0.0%
BITSFR31             0      0       0      32        0.0%
SFR31                0      0       0      32        0.0%
BITBANK14           50      0       0      33        0.0%
BITSFR32             0      0       0      33        0.0%
SFR32                0      0       0      33        0.0%
BANK14              50      0       0      34        0.0%
BITSFR33             0      0       0      34        0.0%
SFR33                0      0       0      34        0.0%
BITBANK15           50      0       0      35        0.0%
BITSFR34             0      0       0      35        0.0%
SFR34                0      0       0      35        0.0%
BANK15              50      0       0      36        0.0%
BITSFR35             0      0       0      36        0.0%
SFR35                0      0       0      36        0.0%
BITBANK16           50      0       0      37        0.0%
BITSFR36             0      0       0      37        0.0%
SFR36                0      0       0      37        0.0%
BANK16              50      0       0      38        0.0%
BITSFR37             0      0       0      38        0.0%
SFR37                0      0       0      38        0.0%
BITBANK17           50      0       0      39        0.0%
BITSFR38             0      0       0      39        0.0%
SFR38                0      0       0      39        0.0%
BANK17              50      0       0      40        0.0%
BITSFR39             0      0       0      40        0.0%
SFR39                0      0       0      40        0.0%
BITBANK18           50      0       0      41        0.0%
BITSFR40             0      0       0      41        0.0%
SFR40                0      0       0      41        0.0%
BANK18              50      0       0      42        0.0%
BITSFR41             0      0       0      42        0.0%
SFR41                0      0       0      42        0.0%
BITBANK19           50      0       0      43        0.0%
BITSFR42             0      0       0      43        0.0%
SFR42                0      0       0      43        0.0%
BANK19              50      0       0      44        0.0%
BITSFR43             0      0       0      44        0.0%
SFR43                0      0       0      44        0.0%
BITBANK20           50      0       0      45        0.0%
BITSFR44             0      0       0      45        0.0%
SFR44                0      0       0      45        0.0%
BANK20              50      0       0      46        0.0%
BITSFR45             0      0       0      46        0.0%
SFR45                0      0       0      46        0.0%
BITBANK21           50      0       0      47        0.0%
BITSFR46             0      0       0      47        0.0%
SFR46                0      0       0      47        0.0%
BANK21              50      0       0      48        0.0%
BITSFR47             0      0       0      48        0.0%
SFR47                0      0       0      48        0.0%
BITBANK22           50      0       0      49        0.0%
BITSFR48             0      0       0      49        0.0%
SFR48                0      0       0      49        0.0%
BANK22              50      0       0      50        0.0%
BITSFR49             0      0       0      50        0.0%
SFR49                0      0       0      50        0.0%
BITBANK23           50      0       0      51        0.0%
BITSFR50             0      0       0      51        0.0%
SFR50                0      0       0      51        0.0%
BANK23              50      0       0      52        0.0%
BITSFR51             0      0       0      52        0.0%
SFR51                0      0       0      52        0.0%
BITBANK24           50      0       0      53        0.0%
BITSFR52             0      0       0      53        0.0%
SFR52                0      0       0      53        0.0%
BANK24              50      0       0      54        0.0%
BITSFR53             0      0       0      54        0.0%
SFR53                0      0       0      54        0.0%
BITBANK25           20      0       0      55        0.0%
BITSFR54             0      0       0      55        0.0%
SFR54                0      0       0      55        0.0%
BANK25              20      0       0      56        0.0%
BITSFR55             0      0       0      56        0.0%
SFR55                0      0       0      56        0.0%
BITSFR56             0      0       0      57        0.0%
SFR56                0      0       0      57        0.0%
DATA                 0      0      A2      57        0.0%
BITSFR57             0      0       0      58        0.0%
SFR57                0      0       0      58        0.0%
BITSFR58             0      0       0      59        0.0%
SFR58                0      0       0      59        0.0%
BITSFR59             0      0       0      60        0.0%
SFR59                0      0       0      60        0.0%
BITSFR60             0      0       0      61        0.0%
SFR60                0      0       0      61        0.0%
BITSFR61             0      0       0      62        0.0%
SFR61                0      0       0      62        0.0%
BITSFR62             0      0       0      63        0.0%
SFR62                0      0       0      63        0.0%
BITSFR63             0      0       0      64        0.0%
SFR63                0      0       0      64        0.0%


Microchip Technology PIC Macro Assembler V2.40 build 20220703182018 
Symbol Table                                                                                   Fri Jan 06 14:43:01 2023

               UART2_SendString@str 0073                                  l40 049F  
                                l25 03CB                                  l64 032C  
                                l58 0462                                  l91 0386  
                                l94 03DF                                  l97 03E7  
                               l100 03EB                                 l112 034B  
                               l121 0452                         ?_RS232_Read 0070  
                               l106 049D                                 l133 045A  
                               l118 03B4                                 l231 008F  
                               l240 00A8                                 l232 0089  
                               l234 008D                                 l139 036A  
                               l235 009C                                 l236 0097  
                               l246 024D                                 l266 024D  
                               l299 030C                                 l831 02C0  
                               u520 03E4                                 u600 02A8  
                               u521 03E3                                 u601 02A7  
                               u530 03EB                                 u610 02B1  
                               u531 03EA                                 u611 02B0  
                               u540 03B4                                 u700 00B5  
                               u620 0068                                 u541 03B3  
                               u701 00B4                                 u550 032B  
                               u710 00C3                                 u630 0072  
                               u551 032A                                 u711 00C2  
                               u560 0343                                 u800 01A8  
                               u720 00D8                                 u640 0087  
                               u561 0342                                 u801 01A7  
                               u721 00D7                                 u641 0086  
                               u810 01C2                                 u730 00F2  
                               u650 008D                                 u811 01C1  
                               u731 00F1                                 u651 008C  
                               u820 01DC                                 u740 010C  
                               u660 0093                                 u821 01DB  
                               u741 010B                                 u661 0092  
                               u590 0369                                 u830 01F6  
                               u750 0126                                 u670 009C  
                               u591 0368                                 u831 01F5  
                               u751 0125                                 u671 009B  
                               u840 01FC                                 u760 0140  
                               u680 00A0                                 u841 01FB  
                               u761 013F                                 u681 009F  
                               u850 0236                                 u770 015A  
                               u690 00AD                                 u851 0235  
                               u771 0159                                 u691 00AC  
                               u860 023E                                 u780 0174  
                               u861 023D                                 u781 0173  
                               u790 018E                                 u791 018D  
                               wreg 0009                        _BAUD1CONbits 011F  
                      _BAUD2CONbits 0A1F                                l1201 0336  
                              l1203 033A                                l1141 03DF  
                              l1205 0343                                l1301 007F  
                              l1231 034F                                l1143 03E4  
                              l1207 044B                                l1311 0094  
                              l1303 0080                                l1241 02E8  
                              l1233 0358                                l1145 0453  
                              l1161 03AB                                l1321 00BB  
                              l1313 00A0                                l1305 0082  
                              l1171 045D                                l1251 02F3  
                              l1243 02EB                                l1235 035C  
                              l1163 03B5                                l1147 0455  
                              l1155 039E                                l1331 00F2  
                              l1323 00C3                                l1315 00AD  
                              l1307 0087                                l1173 0460  
                              l1181 031D                                l1261 02FC  
                              l1253 02F5                                l1245 02EF  
                              l1237 0360                                l1229 034D  
                              l1165 049E                                l1149 0458  
                              l1157 039F                                l1341 0131  
                              l1333 00FD                                l1325 00C5  
                              l1317 00B5                                l1309 0093  
                              l1183 0321                                l1175 030E  
                              l1271 0305                                l1263 02FD  
                              l1255 02F6                                l1247 02F0  
                              l1239 0369                                l1191 0384  
                              l1159 03A7                                l1351 0174  
                              l1343 0140                                l1335 010C  
                              l1327 00D8                                l1319 00B9  
                              l1169 045B                                l1185 032B  
                              l1177 0310                                l1273 0307  
                              l1265 02FE                                l1257 02F7  
                              l1249 02F1                                l1193 049C  
                              l1281 0297                                l1361 01B3  
                              l1353 017F                                l1345 014B  
                              l1337 0117                                l1329 00E3  
                              l1179 0319                                l1275 030A  
                              l1267 0300                                l1259 02FA  
                              l1187 036B                                l1283 029B  
                              l1371 01F6                                l1363 01C2  
                              l1355 018E                                l1347 015A  
                              l1339 0126                                l1291 0061  
                              l1269 0302                                l1189 0381  
                              l1197 032D                                l1285 02A8  
                              l1277 0292                                l1381 0236  
                              l1373 01FC                                l1365 01CD  
                              l1357 0199                                l1349 0165  
                              l1293 0075                                l1199 032E  
                              l1287 02B1                                l1279 0293  
                              l1383 023E                                l1375 0215  
                              l1367 01DC                                l1359 01A8  
                              l1295 0078                                l1385 0242  
                              l1377 0227                                l1369 01E7  
                              l1297 007B                                l1387 0249  
                              l1299 007E                                STR_1 047F  
                              STR_2 0496                                STR_3 0291  
                              STR_4 0491                                STR_5 0291  
                              STR_6 048C                                STR_7 048C  
                              STR_8 046A                                STR_9 0441  
                              _LATA 0018                                _LATB 0019  
                              _LATC 001A                                _main 0061  
            ??_UART1_DataIsReceived 0072                                fsr0h 0005  
                              fsr1h 0007                                indf0 0000  
                              fsr0l 0004                                indf1 0001  
                              fsr1l 0006                                btemp 007E  
                              start 003F             __end_of_Modem_EmptyData 0463  
                       ?_UART1_Init 0070                         ?_UART2_Init 0070  
                       ?_UART2_Read 0070                               ?_main 0070  
                             STR_10 0471                               STR_11 0478  
                             STR_20 0423                               STR_12 03CC  
                             STR_21 0291                               STR_13 0291  
                             STR_22 040F                               STR_14 0405  
                             STR_30 0387                               STR_23 0291  
                             STR_15 0291                               STR_31 03EC  
                             STR_16 042D                               STR_24 0419  
                             STR_17 0291                               STR_25 0252  
                             STR_26 0463                               STR_18 0437  
                             STR_27 0291                               STR_19 0291  
                             STR_28 0291                               STR_29 03F9  
                             i1l103 049B                               i1l130 02E7  
                             i1l290 002A                               i1l292 0033  
                             i1l286 0017                               i1l288 0021  
                             i1l296 003D                               i1l289 003D  
                             _OSCEN 0891                    __end_of_PIC_Init 030D  
                             u57_20 02CA                               u57_21 02C9  
                             _TRISA 0012                               _TRISB 0013  
                             _TRISC 0014                               u58_20 02D0  
                             u90_20 001B                               u58_21 02CF  
                             u90_21 001A                               u91_20 001F  
                             u91_21 001E                               u92_20 0025  
                             u92_21 0024                               u93_20 0029  
                             u93_21 0028                               u94_20 002E  
                             u94_21 002D                               u95_20 0032  
                             u87_20 000A                               u95_21 0031  
                             u87_21 0009                               u96_20 0037  
                             u88_20 000F                               u96_21 0036  
                             u88_21 000E                               u97_20 003B  
                             u89_20 0013                               u97_21 003A  
                             u89_21 0012                               status 0003  
                             wtemp0 007E                     __initialization 0041  
                      __end_of_main 0252         ?_INTERRUPT_InterruptManager 0070  
                      ?_UART2_Write 0070                              ??_main 0076  
                 __end_of_RS232_cmd 036B                              _ANSELA 1F38  
                            _ANSELB 1F43                              _ANSELC 1F4E  
                            _RC1REG 0119                              _RC2REG 0A19  
                            _RB2PPS 1F1A                              i1l1211 02C5  
                            i1l1221 02D9                              i1l1213 02CA  
                            i1l1151 0499                              i1l1223 02DF  
                            i1l1215 02D0                              i1l1225 02E3  
                            i1l1217 02D5                              i1l1209 02C1  
                            i1l1401 0025                              i1l1219 02D7  
                            i1l1227 02E5                              i1l1411 003B  
                            i1l1405 002E                              i1l1409 0037  
                            _RC6PPS 1F26                              i1l1391 000A  
                            i1l1393 000F                              i1l1395 0013  
                            i1l1397 001B                              i1l1389 0006  
                            i1l1399 001F                              _SP1BRG 011B  
                            _SP2BRG 0A1B                              _OSCFRQ 0893  
                 ??_RS232_EmptyData 0072                              _TX1REG 011A  
                            _TX2REG 0A1A                    ?_Modem_EmptyData 0070  
                            _strcmp 0292                       main@str_RS232 0034  
                  _UART2_SendString 039E        __end_of_UART2_DataIsReceived 049E  
                     main@str_modem 0020             __end_of__initialization 005D  
                      RS232_cmd@str 0073                           ?_PIC_Init 0070  
                    __pcstackCOMMON 0070                        ??_RS232_Read 0070  
                     ?_UART2_SendOK 0070                   __end_of_Modem_cmd 032D  
                        __pbssBANK0 0048                          __pbssBANK1 00A0  
                        __pbssBANK2 0120                  __end_of_RS232_Read 02E8  
                        ??_PIC_Init 0072                          __pmaintext 0061  
                      ??_UART1_Init 0072                        ??_UART2_Init 0072  
                      ??_UART2_Read 0070                          __pintentry 0004  
                           ?_strcmp 0072                      ??_UART2_SendOK 0076  
                           _OSCCON1 088D                             _OSCCON3 088F  
                __end_of_UART1_Init 03CC                  __end_of_UART2_Init 0387  
                __end_of_UART2_Read 049C                        Modem_cmd@str 0073  
                   UART2_Write@data 0072                          _read_RS232 00A0  
              _UART2_DataIsReceived 049C                          _read_modem 0048  
                           __ptext1 0292                             __ptext2 032D  
                           __ptext3 044B                             __ptext4 039E  
                           __ptext5 03DE                             __ptext6 036B  
                           __ptext7 0453                             __ptext8 049C  
                           __ptext9 03B5                     _RS232_EmptyData 0453  
                           _message 005C                             clrloop0 0487  
              end_of_initialization 005D                           _RS232_cmd 034C  
          __end_of_UART2_SendString 03B5               ?_UART2_DataIsReceived 0070  
                 RS232_cmd@position 0074                             strcmp@l 0072  
                           strcmp@r 0074                           _PORTCbits 000E  
                         _TRISBbits 0013                           _TRISCbits 0014  
                        ?_RS232_cmd 0070                __end_of_UART2_SendOK 0453  
      __end_of_UART2_SendStringCRLF 034C             __end_of_RS232_EmptyData 045B  
                    __end_of_strcmp 02C1                 start_initialization 0041  
                         _Modem_cmd 030D          _read_RS232@My_UART2_1$F532 0120  
                RS232_Read@position 0077                   Modem_cmd@position 0074  
            ??_UART2_DataIsReceived 0072                            ??_strcmp 0075  
                       __pbssCOMMON 0077                           ___latbits 0003  
                     __pcstackBANK0 0020                         ??_RS232_cmd 0072  
                        ?_Modem_cmd 0070                    ?_RS232_EmptyData 0070  
                     ??_UART2_Write 0072        ??_INTERRUPT_InterruptManager 0072  
      __end_of_UART1_DataIsReceived 04A0                   ??_Modem_EmptyData 0072  
              _UART2_SendStringCRLF 032D                            _LATBbits 0019  
                         clear_ram0 0486                            _PIE3bits 0719  
                          _PIR3bits 070F                            _PIC_Init 02E8  
                          _RX1DTPPS 1ECB                            _RX2DTPPS 1ECD  
                 ?_UART2_SendString 0073                           main@F7516 00CD  
                         main@F7518 00B9                  ??_UART2_SendString 0075  
                      _UART2_SendOK 044B                 __end_of_UART2_Write 03EC  
             ?_UART2_SendStringCRLF 0073                         ??_Modem_cmd 0072  
                Modem_Read@position 0079                            __ptext10 049E  
                          __ptext11 034C                            __ptext12 02E8  
                          __ptext13 030D                            __ptext14 045B  
                          __ptext16 02C1                            __ptext17 0499  
                       _OSCCON1bits 088D                _UART1_DataIsReceived 049E  
                        _RC1STAbits 011D                          _RC2STAbits 0A1D  
                          int$flags 007E  __end_of_INTERRUPT_InterruptManager 003F  
        _INTERRUPT_InterruptManager 0004                         _UART2_Write 03DE  
                        _RS232_Read 02C1                          _INTCONbits 000B  
                    __pstringtext10 042D                      __pstringtext11 0437  
                    __pstringtext20 0496                      __pstringtext12 0441  
                    __pstringtext21 0000                      __pstringtext13 0463  
                    __pstringtext14 046A                      __pstringtext15 0471  
                    __pstringtext16 0478                      __pstringtext17 047F  
                    __pstringtext18 048C                      __pstringtext19 0491  
            ??_UART2_SendStringCRLF 0075                            intlevel1 0000  
             ?_UART1_DataIsReceived 0070                     _cmdRS323Receive 0078  
                        _UART1_Init 03B5                          _UART2_Init 036B  
                        _UART2_Read 0499                     _Modem_EmptyData 045B  
                     __pstringtext1 0252                       __pstringtext2 0387  
                     __pstringtext3 03CC                       __pstringtext4 03EC  
                     __pstringtext5 03F9                       __pstringtext6 0405  
                     __pstringtext7 040F                       __pstringtext8 0419  
                     __pstringtext9 0423             UART2_SendStringCRLF@str 0073  
                    RS232_Read@data 0071                          _TX1STAbits 011E  
                        _TX2STAbits 0A1E                     _cmdModemReceive 007A  
